---
triple:          'x86_64-apple-darwin'
binary-path:     '/Users/danielcervantes/GroupProject340/GROUP-ORJECT/MAIN'
relocations:
  - { offsetInCU: 0x6940, offset: 0x6940, size: 0x8, addend: 0x0, symName: __ZNSt3__124__put_character_sequenceB7v160006IcNS_11char_traitsIcEEEERNS_13basic_ostreamIT_T0_EES7_PKS4_m, symObjAddr: 0x4A00, symBinAddr: 0x100006E80, symSize: 0x1F0 }
  - { offsetInCU: 0x849C, offset: 0x849C, size: 0x8, addend: 0x0, symName: __ZNSt3__1lsB7v160006INS_11char_traitsIcEEEERNS_13basic_ostreamIcT_EES6_PKc, symObjAddr: 0xE0, symBinAddr: 0x100002560, symSize: 0x40 }
  - { offsetInCU: 0x84E2, offset: 0x84E2, size: 0x8, addend: 0x0, symName: __ZNSt3__14endlB7v160006IcNS_11char_traitsIcEEEERNS_13basic_ostreamIT_T0_EES7_, symObjAddr: 0x140, symBinAddr: 0x1000025C0, symSize: 0x50 }
  - { offsetInCU: 0x8522, offset: 0x8522, size: 0x8, addend: 0x0, symName: __ZNSt3__119__debug_db_insert_cB7v160006INS_6vectorI6PlayerNS_9allocatorIS2_EEEEEEvPT_, symObjAddr: 0x680, symBinAddr: 0x100002B00, symSize: 0x10 }
  - { offsetInCU: 0x8553, offset: 0x8553, size: 0x8, addend: 0x0, symName: __ZNSt3__112__to_addressB7v160006I6PlayerEEPT_S3_, symObjAddr: 0x970, symBinAddr: 0x100002DF0, symSize: 0x10 }
  - { offsetInCU: 0x8588, offset: 0x8588, size: 0x8, addend: 0x0, symName: __ZNSt3__119__debug_db_insert_cB7v160006INS_6vectorI4CardNS_9allocatorIS2_EEEEEEvPT_, symObjAddr: 0xBF0, symBinAddr: 0x100003070, symSize: 0x10 }
  - { offsetInCU: 0x85B9, offset: 0x85B9, size: 0x8, addend: 0x0, symName: __ZNSt3__115__debug_db_swapB7v160006INS_6vectorI4CardNS_9allocatorIS2_EEEEEEvPT_S7_, symObjAddr: 0xC00, symBinAddr: 0x100003080, symSize: 0x10 }
  - { offsetInCU: 0x85F8, offset: 0x85F8, size: 0x8, addend: 0x0, symName: __ZNSt3__13maxB7v160006ImEERKT_S3_S3_, symObjAddr: 0x1050, symBinAddr: 0x1000034D0, symSize: 0x30 }
  - { offsetInCU: 0x863B, offset: 0x863B, size: 0x8, addend: 0x0, symName: __ZNSt3__13minB7v160006ImEERKT_S3_S3_, symObjAddr: 0x1080, symBinAddr: 0x100003500, symSize: 0x30 }
  - { offsetInCU: 0x887F, offset: 0x887F, size: 0x8, addend: 0x0, symName: __ZNSt3__13minB7v160006ImNS_6__lessImmEEEERKT_S5_S5_T0_, symObjAddr: 0x1100, symBinAddr: 0x100003580, symSize: 0x50 }
  - { offsetInCU: 0x8914, offset: 0x8914, size: 0x8, addend: 0x0, symName: __ZNSt3__120__throw_length_errorB7v160006EPKc, symObjAddr: 0x11E0, symBinAddr: 0x100003660, symSize: 0x70 }
  - { offsetInCU: 0x893C, offset: 0x893C, size: 0x8, addend: 0x0, symName: __ZNSt3__13maxB7v160006ImNS_6__lessImmEEEERKT_S5_S5_T0_, symObjAddr: 0x1310, symBinAddr: 0x100003790, symSize: 0x50 }
  - { offsetInCU: 0x8996, offset: 0x8996, size: 0x8, addend: 0x0, symName: __ZNSt3__119__allocate_at_leastB7v160006INS_9allocatorI6PlayerEEEENS_19__allocation_resultINS_16allocator_traitsIT_E7pointerEEERS6_m, symObjAddr: 0x1460, symBinAddr: 0x1000038E0, symSize: 0x40 }
  - { offsetInCU: 0x89D9, offset: 0x89D9, size: 0x8, addend: 0x0, symName: __ZNSt3__117__libcpp_allocateB7v160006Emm, symObjAddr: 0x15D0, symBinAddr: 0x100003A50, symSize: 0x20 }
  - { offsetInCU: 0x8A16, offset: 0x8A16, size: 0x8, addend: 0x0, symName: __ZNSt3__121__libcpp_operator_newB7v160006IJmEEEPvDpT_, symObjAddr: 0x15F0, symBinAddr: 0x100003A70, symSize: 0x20 }
  - { offsetInCU: 0x8A4F, offset: 0x8A4F, size: 0x8, addend: 0x0, symName: __ZNSt3__142__uninitialized_allocator_move_if_noexceptB7v160006INS_9allocatorI6PlayerEENS_16reverse_iteratorIPS2_EES6_S6_EET2_RT_T0_T1_S7_, symObjAddr: 0x1720, symBinAddr: 0x100003BA0, symSize: 0x180 }
  - { offsetInCU: 0x8AEE, offset: 0x8AEE, size: 0x8, addend: 0x0, symName: __ZNSt3__14swapB7v160006IP6PlayerEENS_9enable_ifIXaasr21is_move_constructibleIT_EE5valuesr18is_move_assignableIS4_EE5valueEvE4typeERS4_S7_, symObjAddr: 0x18F0, symBinAddr: 0x100003D70, symSize: 0x40 }
  - { offsetInCU: 0x8B3F, offset: 0x8B3F, size: 0x8, addend: 0x0, symName: __ZNSt3__125__debug_db_invalidate_allB7v160006INS_6vectorI6PlayerNS_9allocatorIS2_EEEEEEvPT_, symObjAddr: 0x19E0, symBinAddr: 0x100003E60, symSize: 0x10 }
  - { offsetInCU: 0x8B70, offset: 0x8B70, size: 0x8, addend: 0x0, symName: __ZNSt3__122__make_exception_guardB7v160006INS_29_AllocatorDestroyRangeReverseINS_9allocatorI6PlayerEENS_16reverse_iteratorIPS3_EEEEEENS_28__exception_guard_exceptionsIT_EESA_, symObjAddr: 0x1A30, symBinAddr: 0x100003EB0, symSize: 0x60 }
  - { offsetInCU: 0x8BA5, offset: 0x8BA5, size: 0x8, addend: 0x0, symName: __ZNSt3__1neB7v160006IP6PlayerS2_EEbRKNS_16reverse_iteratorIT_EERKNS3_IT0_EE, symObjAddr: 0x1AD0, symBinAddr: 0x100003F50, symSize: 0x40 }
  - { offsetInCU: 0x8BF1, offset: 0x8BF1, size: 0x8, addend: 0x0, symName: __ZNSt3__112__to_addressB7v160006INS_16reverse_iteratorIP6PlayerEEvEENS_5decayIDTclsr19__to_address_helperIT_EE6__callclsr3stdE7declvalIRKS6_EEEEE4typeES8_, symObjAddr: 0x1B10, symBinAddr: 0x100003F90, symSize: 0x20 }
  - { offsetInCU: 0x8C50, offset: 0x8C50, size: 0x8, addend: 0x0, symName: __ZNSt3__119__allocator_destroyB7v160006INS_9allocatorI6PlayerEENS_16reverse_iteratorINS4_IPS2_EEEES7_EEvRT_T0_T1_, symObjAddr: 0x1E00, symBinAddr: 0x100004280, symSize: 0x70 }
  - { offsetInCU: 0x8CB3, offset: 0x8CB3, size: 0x8, addend: 0x0, symName: __ZNSt3__1neB7v160006INS_16reverse_iteratorIP6PlayerEES4_EEbRKNS1_IT_EERKNS1_IT0_EE, symObjAddr: 0x1EA0, symBinAddr: 0x100004320, symSize: 0x50 }
  - { offsetInCU: 0x8CFF, offset: 0x8CFF, size: 0x8, addend: 0x0, symName: __ZNSt3__112__to_addressB7v160006INS_16reverse_iteratorINS1_IP6PlayerEEEEvEENS_5decayIDTclsr19__to_address_helperIT_EE6__callclsr3stdE7declvalIRKS7_EEEEE4typeES9_, symObjAddr: 0x1F20, symBinAddr: 0x1000043A0, symSize: 0x20 }
  - { offsetInCU: 0x8D5E, offset: 0x8D5E, size: 0x8, addend: 0x0, symName: __ZNSt3__119__libcpp_deallocateB7v160006EPvmm, symObjAddr: 0x22C0, symBinAddr: 0x100004740, symSize: 0x30 }
  - { offsetInCU: 0x8DA6, offset: 0x8DA6, size: 0x8, addend: 0x0, symName: __ZNSt3__127__do_deallocate_handle_sizeB7v160006IJEEEvPvmDpT_, symObjAddr: 0x22F0, symBinAddr: 0x100004770, symSize: 0x20 }
  - { offsetInCU: 0x8DE4, offset: 0x8DE4, size: 0x8, addend: 0x0, symName: __ZNSt3__124__libcpp_operator_deleteB7v160006IJPvEEEvDpT_, symObjAddr: 0x2310, symBinAddr: 0x100004790, symSize: 0x20 }
  - { offsetInCU: 0x8E19, offset: 0x8E19, size: 0x8, addend: 0x0, symName: __ZNSt3__118__debug_db_erase_cB7v160006INS_6vectorI4CardNS_9allocatorIS2_EEEEEEvPT_, symObjAddr: 0x26F0, symBinAddr: 0x100004B70, symSize: 0x10 }
  - { offsetInCU: 0x8E4A, offset: 0x8E4A, size: 0x8, addend: 0x0, symName: __ZNSt3__112__to_addressB7v160006I4CardEEPT_S3_, symObjAddr: 0x27E0, symBinAddr: 0x100004C60, symSize: 0x10 }
  - { offsetInCU: 0x8E7F, offset: 0x8E7F, size: 0x8, addend: 0x0, symName: __ZNSt3__118__debug_db_erase_cB7v160006INS_6vectorI6PlayerNS_9allocatorIS2_EEEEEEvPT_, symObjAddr: 0x2A60, symBinAddr: 0x100004EE0, symSize: 0x10 }
  - { offsetInCU: 0x8EB0, offset: 0x8EB0, size: 0x8, addend: 0x0, symName: __ZNSt3__1neB7v160006IP6PlayerEEbRKNS_11__wrap_iterIT_EES7_, symObjAddr: 0x2B90, symBinAddr: 0x100005010, symSize: 0x30 }
  - { offsetInCU: 0x8EF3, offset: 0x8EF3, size: 0x8, addend: 0x0, symName: __ZNSt3__119__allocate_at_leastB7v160006INS_9allocatorI4CardEEEENS_19__allocation_resultINS_16allocator_traitsIT_E7pointerEEERS6_m, symObjAddr: 0x3590, symBinAddr: 0x100005A10, symSize: 0x40 }
  - { offsetInCU: 0x8F36, offset: 0x8F36, size: 0x8, addend: 0x0, symName: __ZNSt3__142__uninitialized_allocator_move_if_noexceptB7v160006INS_9allocatorI4CardEENS_16reverse_iteratorIPS2_EES6_S2_vEET1_RT_T0_SA_S7_, symObjAddr: 0x3720, symBinAddr: 0x100005BA0, symSize: 0x70 }
  - { offsetInCU: 0x8FB2, offset: 0x8FB2, size: 0x8, addend: 0x0, symName: __ZNSt3__14swapB7v160006IP4CardEENS_9enable_ifIXaasr21is_move_constructibleIT_EE5valuesr18is_move_assignableIS4_EE5valueEvE4typeERS4_S7_, symObjAddr: 0x37E0, symBinAddr: 0x100005C60, symSize: 0x40 }
  - { offsetInCU: 0x9003, offset: 0x9003, size: 0x8, addend: 0x0, symName: __ZNSt3__125__debug_db_invalidate_allB7v160006INS_6vectorI4CardNS_9allocatorIS2_EEEEEEvPT_, symObjAddr: 0x38D0, symBinAddr: 0x100005D50, symSize: 0x10 }
  - { offsetInCU: 0x9034, offset: 0x9034, size: 0x8, addend: 0x0, symName: __ZNSt3__14moveB7v160006INS_16reverse_iteratorIP4CardEES4_EET0_T_S6_S5_, symObjAddr: 0x38E0, symBinAddr: 0x100005D60, symSize: 0x80 }
  - { offsetInCU: 0x908E, offset: 0x908E, size: 0x8, addend: 0x0, symName: __ZNSt3__16__moveB7v160006INS_17_ClassicAlgPolicyENS_16reverse_iteratorIP4CardEES5_S5_EENS_4pairIT0_T2_EES7_T1_S8_, symObjAddr: 0x3960, symBinAddr: 0x100005DE0, symSize: 0x90 }
  - { offsetInCU: 0x90FA, offset: 0x90FA, size: 0x8, addend: 0x0, symName: __ZNSt3__123__dispatch_copy_or_moveB7v160006INS_17_ClassicAlgPolicyENS_11__move_loopIS1_EENS_14__move_trivialENS_16reverse_iteratorIP4CardEES8_S8_EENS_4pairIT2_T4_EESA_T3_SB_, symObjAddr: 0x39F0, symBinAddr: 0x100005E70, symSize: 0x90 }
  - { offsetInCU: 0x9178, offset: 0x9178, size: 0x8, addend: 0x0, symName: __ZNSt3__121__unwrap_and_dispatchB7v160006INS_10__overloadINS_11__move_loopINS_17_ClassicAlgPolicyEEENS_14__move_trivialEEENS_16reverse_iteratorIP4CardEESA_SA_Li0EEENS_4pairIT0_T2_EESC_T1_SD_, symObjAddr: 0x3A80, symBinAddr: 0x100005F00, symSize: 0x210 }
  - { offsetInCU: 0x9207, offset: 0x9207, size: 0x8, addend: 0x0, symName: __ZNSt3__114__unwrap_rangeB7v160006INS_16reverse_iteratorIP4CardEES4_EENS_4pairIT0_S6_EET_S8_, symObjAddr: 0x3C90, symBinAddr: 0x100006110, symSize: 0x90 }
  - { offsetInCU: 0x9382, offset: 0x9382, size: 0x8, addend: 0x0, symName: __ZNSt3__113__unwrap_iterB7v160006INS_16reverse_iteratorIP4CardEENS_18__unwrap_iter_implIS4_Lb0EEELi0EEEDTclsrT0_8__unwrapclsr3stdE7declvalIT_EEEES8_, symObjAddr: 0x3DC0, symBinAddr: 0x100006240, symSize: 0x40 }
  - { offsetInCU: 0x93C6, offset: 0x93C6, size: 0x8, addend: 0x0, symName: __ZNSt3__19make_pairB7v160006INS_16reverse_iteratorIP4CardEES4_EENS_4pairINS_18__unwrap_ref_decayIT_E4typeENS6_IT0_E4typeEEEOS7_OSA_, symObjAddr: 0x3E00, symBinAddr: 0x100006280, symSize: 0x30 }
  - { offsetInCU: 0x9415, offset: 0x9415, size: 0x8, addend: 0x0, symName: __ZNSt3__114__rewrap_rangeB7v160006INS_16reverse_iteratorIP4CardEES4_EET_S5_T0_, symObjAddr: 0x3E30, symBinAddr: 0x1000062B0, symSize: 0x60 }
  - { offsetInCU: 0x9461, offset: 0x9461, size: 0x8, addend: 0x0, symName: __ZNSt3__113__rewrap_iterB7v160006INS_16reverse_iteratorIP4CardEES4_NS_18__unwrap_iter_implIS4_Lb0EEEEET_S7_T0_, symObjAddr: 0x3E90, symBinAddr: 0x100006310, symSize: 0x70 }
  - { offsetInCU: 0x94B6, offset: 0x94B6, size: 0x8, addend: 0x0, symName: __ZNSt3__1neB7v160006IP4CardS2_EEbRKNS_16reverse_iteratorIT_EERKNS3_IT0_EE, symObjAddr: 0x3F00, symBinAddr: 0x100006380, symSize: 0x40 }
  - { offsetInCU: 0x95B4, offset: 0x95B4, size: 0x8, addend: 0x0, symName: __ZNSt3__1eqB7v160006IP6PlayerEEbRKNS_11__wrap_iterIT_EES7_, symObjAddr: 0x4300, symBinAddr: 0x100006780, symSize: 0x40 }
  - { offsetInCU: 0x95F7, offset: 0x95F7, size: 0x8, addend: 0x0, symName: __ZNSt3__1neB7v160006IPK4CardEEbRKNS_11__wrap_iterIT_EES8_, symObjAddr: 0x47A0, symBinAddr: 0x100006C20, symSize: 0x30 }
  - { offsetInCU: 0x963A, offset: 0x963A, size: 0x8, addend: 0x0, symName: __ZNSt3__1eqB7v160006IPK4CardEEbRKNS_11__wrap_iterIT_EES8_, symObjAddr: 0x4960, symBinAddr: 0x100006DE0, symSize: 0x40 }
  - { offsetInCU: 0x967D, offset: 0x967D, size: 0x8, addend: 0x0, symName: __ZNSt3__116__pad_and_outputB7v160006IcNS_11char_traitsIcEEEENS_19ostreambuf_iteratorIT_T0_EES6_PKS4_S8_S8_RNS_8ios_baseES4_, symObjAddr: 0x4C40, symBinAddr: 0x1000070C0, symSize: 0x220 }
  - { offsetInCU: 0x974D, offset: 0x974D, size: 0x8, addend: 0x0, symName: __ZNSt3__119__debug_db_insert_cB7v160006INS_12basic_stringIcNS_11char_traitsIcEENS_9allocatorIcEEEEEEvPT_, symObjAddr: 0x50D0, symBinAddr: 0x100007550, symSize: 0x10 }
  - { offsetInCU: 0x977E, offset: 0x977E, size: 0x8, addend: 0x0, symName: __ZNSt3__112__to_addressB7v160006IKcEEPT_S3_, symObjAddr: 0x5170, symBinAddr: 0x1000075F0, symSize: 0x10 }
  - { offsetInCU: 0x97E6, offset: 0x97E6, size: 0x8, addend: 0x0, symName: __ZNSt3__19use_facetB7v160006INS_5ctypeIcEEEERKT_RKNS_6localeE, symObjAddr: 0x53D0, symBinAddr: 0x100007850, symSize: 0x30 }
  - { offsetInCU: 0x9CB5, offset: 0x9CB5, size: 0x8, addend: 0x0, symName: __ZNSt3__118__constexpr_strlenB7v160006EPKc, symObjAddr: 0x5460, symBinAddr: 0x1000078E0, symSize: 0x1B }
  - { offsetInCU: 0xA03E, offset: 0xA03E, size: 0x8, addend: 0x0, symName: __ZSt28__throw_bad_array_new_lengthB7v160006v, symObjAddr: 0x1590, symBinAddr: 0x100003A10, symSize: 0x40 }
  - { offsetInCU: 0xA6FE, offset: 0xA6FE, size: 0x8, addend: 0x0, symName: __ZNSt3__16vectorI6PlayerNS_9allocatorIS1_EEE26__swap_out_circular_bufferERNS_14__split_bufferIS1_RS3_EE, symObjAddr: 0xE50, symBinAddr: 0x1000032D0, symSize: 0x130 }
  - { offsetInCU: 0xA799, offset: 0xA799, size: 0x8, addend: 0x0, symName: __ZNSt3__16vectorI4CardNS_9allocatorIS1_EEE26__swap_out_circular_bufferERNS_14__split_bufferIS1_RS3_EE, symObjAddr: 0x3230, symBinAddr: 0x1000056B0, symSize: 0x130 }
  - { offsetInCU: 0xCA81, offset: 0xCA81, size: 0x8, addend: 0x0, symName: _main, symObjAddr: 0x0, symBinAddr: 0x100002480, symSize: 0xE0 }
  - { offsetInCU: 0xCAB8, offset: 0xCAB8, size: 0x8, addend: 0x0, symName: __ZNSt3__113basic_ostreamIcNS_11char_traitsIcEEElsB7v160006EPFRS3_S4_E, symObjAddr: 0x120, symBinAddr: 0x1000025A0, symSize: 0x20 }
  - { offsetInCU: 0xCB43, offset: 0xCB43, size: 0x8, addend: 0x0, symName: __ZN13BlackjackGameC1Ei, symObjAddr: 0x190, symBinAddr: 0x100002610, symSize: 0x30 }
  - { offsetInCU: 0xCB7A, offset: 0xCB7A, size: 0x8, addend: 0x0, symName: __ZN13BlackjackGame4playEv, symObjAddr: 0x1C0, symBinAddr: 0x100002640, symSize: 0x250 }
  - { offsetInCU: 0xCC63, offset: 0xCC63, size: 0x8, addend: 0x0, symName: __ZN13BlackjackGameD1Ev, symObjAddr: 0x410, symBinAddr: 0x100002890, symSize: 0x20 }
  - { offsetInCU: 0xCC8E, offset: 0xCC8E, size: 0x8, addend: 0x0, symName: __ZN13BlackjackGameC2Ei, symObjAddr: 0x430, symBinAddr: 0x1000028B0, symSize: 0xD0 }
  - { offsetInCU: 0xCCE2, offset: 0xCCE2, size: 0x8, addend: 0x0, symName: __ZNSt3__16vectorI6PlayerNS_9allocatorIS1_EEEC1B7v160006Ev, symObjAddr: 0x500, symBinAddr: 0x100002980, symSize: 0x20 }
  - { offsetInCU: 0xCD0A, offset: 0xCD0A, size: 0x8, addend: 0x0, symName: __ZNSt3__16vectorI6PlayerNS_9allocatorIS1_EEE9push_backB7v160006EOS1_, symObjAddr: 0x520, symBinAddr: 0x1000029A0, symSize: 0x60 }
  - { offsetInCU: 0xCD40, offset: 0xCD40, size: 0x8, addend: 0x0, symName: __ZN6PlayerC1Ev, symObjAddr: 0x580, symBinAddr: 0x100002A00, symSize: 0x20 }
  - { offsetInCU: 0xCD69, offset: 0xCD69, size: 0x8, addend: 0x0, symName: __ZN6PlayerD1Ev, symObjAddr: 0x5A0, symBinAddr: 0x100002A20, symSize: 0x20 }
  - { offsetInCU: 0xCD94, offset: 0xCD94, size: 0x8, addend: 0x0, symName: __ZNSt3__16vectorI6PlayerNS_9allocatorIS1_EEED1B7v160006Ev, symObjAddr: 0x5C0, symBinAddr: 0x100002A40, symSize: 0x20 }
  - { offsetInCU: 0xCDBD, offset: 0xCDBD, size: 0x8, addend: 0x0, symName: __ZNSt3__16vectorI6PlayerNS_9allocatorIS1_EEEC2B7v160006Ev, symObjAddr: 0x5E0, symBinAddr: 0x100002A60, symSize: 0x60 }
  - { offsetInCU: 0xCDF0, offset: 0xCDF0, size: 0x8, addend: 0x0, symName: __ZNSt3__117__compressed_pairIP6PlayerNS_9allocatorIS1_EEEC1B7v160006IDnNS_18__default_init_tagEEEOT_OT0_, symObjAddr: 0x640, symBinAddr: 0x100002AC0, symSize: 0x30 }
  - { offsetInCU: 0xCE47, offset: 0xCE47, size: 0x8, addend: 0x0, symName: __ZNSt3__117__compressed_pairIP6PlayerNS_9allocatorIS1_EEEC2B7v160006IDnNS_18__default_init_tagEEEOT_OT0_, symObjAddr: 0x690, symBinAddr: 0x100002B10, symSize: 0x40 }
  - { offsetInCU: 0xCE9E, offset: 0xCE9E, size: 0x8, addend: 0x0, symName: __ZNSt3__122__compressed_pair_elemIP6PlayerLi0ELb0EEC2B7v160006IDnvEEOT_, symObjAddr: 0x6D0, symBinAddr: 0x100002B50, symSize: 0x20 }
  - { offsetInCU: 0xCEDF, offset: 0xCEDF, size: 0x8, addend: 0x0, symName: __ZNSt3__122__compressed_pair_elemINS_9allocatorI6PlayerEELi1ELb1EEC2B7v160006ENS_18__default_init_tagE, symObjAddr: 0x6F0, symBinAddr: 0x100002B70, symSize: 0x20 }
  - { offsetInCU: 0xCF13, offset: 0xCF13, size: 0x8, addend: 0x0, symName: __ZNSt3__19allocatorI6PlayerEC2B7v160006Ev, symObjAddr: 0x710, symBinAddr: 0x100002B90, symSize: 0x20 }
  - { offsetInCU: 0xCF3C, offset: 0xCF3C, size: 0x8, addend: 0x0, symName: __ZNSt3__116__non_trivial_ifILb1ENS_9allocatorI6PlayerEEEC2B7v160006Ev, symObjAddr: 0x730, symBinAddr: 0x100002BB0, symSize: 0x10 }
  - { offsetInCU: 0xCF65, offset: 0xCF65, size: 0x8, addend: 0x0, symName: __ZNSt3__16vectorI6PlayerNS_9allocatorIS1_EEE9__end_capB7v160006Ev, symObjAddr: 0x740, symBinAddr: 0x100002BC0, symSize: 0x20 }
  - { offsetInCU: 0xCF8F, offset: 0xCF8F, size: 0x8, addend: 0x0, symName: __ZNSt3__16vectorI6PlayerNS_9allocatorIS1_EEE22__construct_one_at_endB7v160006IJS1_EEEvDpOT_, symObjAddr: 0x760, symBinAddr: 0x100002BE0, symSize: 0x90 }
  - { offsetInCU: 0xCFDC, offset: 0xCFDC, size: 0x8, addend: 0x0, symName: __ZNSt3__16vectorI6PlayerNS_9allocatorIS1_EEE21__push_back_slow_pathIS1_EEvOT_, symObjAddr: 0x7F0, symBinAddr: 0x100002C70, symSize: 0xD0 }
  - { offsetInCU: 0xD039, offset: 0xD039, size: 0x8, addend: 0x0, symName: __ZNSt3__117__compressed_pairIP6PlayerNS_9allocatorIS1_EEE5firstB7v160006Ev, symObjAddr: 0x8C0, symBinAddr: 0x100002D40, symSize: 0x20 }
  - { offsetInCU: 0xD05E, offset: 0xD05E, size: 0x8, addend: 0x0, symName: __ZNSt3__122__compressed_pair_elemIP6PlayerLi0ELb0EE5__getB7v160006Ev, symObjAddr: 0x8E0, symBinAddr: 0x100002D60, symSize: 0x10 }
  - { offsetInCU: 0xD09C, offset: 0xD09C, size: 0x8, addend: 0x0, symName: __ZNSt3__16vectorI6PlayerNS_9allocatorIS1_EEE21_ConstructTransactionC1B7v160006ERS4_m, symObjAddr: 0x8F0, symBinAddr: 0x100002D70, symSize: 0x30 }
  - { offsetInCU: 0xD0E3, offset: 0xD0E3, size: 0x8, addend: 0x0, symName: __ZNSt3__116allocator_traitsINS_9allocatorI6PlayerEEE9constructB7v160006IS2_JS2_EvEEvRS3_PT_DpOT0_, symObjAddr: 0x920, symBinAddr: 0x100002DA0, symSize: 0x30 }
  - { offsetInCU: 0xD13A, offset: 0xD13A, size: 0x8, addend: 0x0, symName: __ZNSt3__16vectorI6PlayerNS_9allocatorIS1_EEE7__allocB7v160006Ev, symObjAddr: 0x950, symBinAddr: 0x100002DD0, symSize: 0x20 }
  - { offsetInCU: 0xD15F, offset: 0xD15F, size: 0x8, addend: 0x0, symName: __ZNSt3__16vectorI6PlayerNS_9allocatorIS1_EEE21_ConstructTransactionD1B7v160006Ev, symObjAddr: 0x980, symBinAddr: 0x100002E00, symSize: 0x20 }
  - { offsetInCU: 0xD188, offset: 0xD188, size: 0x8, addend: 0x0, symName: __ZNSt3__16vectorI6PlayerNS_9allocatorIS1_EEE21_ConstructTransactionC2B7v160006ERS4_m, symObjAddr: 0x9A0, symBinAddr: 0x100002E20, symSize: 0x40 }
  - { offsetInCU: 0xD1CF, offset: 0xD1CF, size: 0x8, addend: 0x0, symName: __ZNSt3__19allocatorI6PlayerE9constructB7v160006IS1_JS1_EEEvPT_DpOT0_, symObjAddr: 0x9E0, symBinAddr: 0x100002E60, symSize: 0x30 }
  - { offsetInCU: 0xD224, offset: 0xD224, size: 0x8, addend: 0x0, symName: __ZN6PlayerC1EOS_, symObjAddr: 0xA10, symBinAddr: 0x100002E90, symSize: 0x30 }
  - { offsetInCU: 0xD258, offset: 0xD258, size: 0x8, addend: 0x0, symName: __ZN6PlayerC2EOS_, symObjAddr: 0xA40, symBinAddr: 0x100002EC0, symSize: 0x40 }
  - { offsetInCU: 0xD28C, offset: 0xD28C, size: 0x8, addend: 0x0, symName: __ZNSt3__16vectorI4CardNS_9allocatorIS1_EEEC1B7v160006EOS4_, symObjAddr: 0xA80, symBinAddr: 0x100002F00, symSize: 0x30 }
  - { offsetInCU: 0xD2C6, offset: 0xD2C6, size: 0x8, addend: 0x0, symName: __ZNSt3__16vectorI4CardNS_9allocatorIS1_EEEC2B7v160006EOS4_, symObjAddr: 0xAB0, symBinAddr: 0x100002F30, symSize: 0xF0 }
  - { offsetInCU: 0xD300, offset: 0xD300, size: 0x8, addend: 0x0, symName: __ZNSt3__16vectorI4CardNS_9allocatorIS1_EEE7__allocB7v160006Ev, symObjAddr: 0xBA0, symBinAddr: 0x100003020, symSize: 0x20 }
  - { offsetInCU: 0xD32A, offset: 0xD32A, size: 0x8, addend: 0x0, symName: __ZNSt3__117__compressed_pairIP4CardNS_9allocatorIS1_EEEC1B7v160006IDnS4_EEOT_OT0_, symObjAddr: 0xBC0, symBinAddr: 0x100003040, symSize: 0x30 }
  - { offsetInCU: 0xD381, offset: 0xD381, size: 0x8, addend: 0x0, symName: __ZNSt3__16vectorI4CardNS_9allocatorIS1_EEE9__end_capB7v160006Ev, symObjAddr: 0xC10, symBinAddr: 0x100003090, symSize: 0x20 }
  - { offsetInCU: 0xD3A6, offset: 0xD3A6, size: 0x8, addend: 0x0, symName: __ZNSt3__117__compressed_pairIP4CardNS_9allocatorIS1_EEE6secondB7v160006Ev, symObjAddr: 0xC30, symBinAddr: 0x1000030B0, symSize: 0x20 }
  - { offsetInCU: 0xD3CB, offset: 0xD3CB, size: 0x8, addend: 0x0, symName: __ZNSt3__122__compressed_pair_elemINS_9allocatorI4CardEELi1ELb1EE5__getB7v160006Ev, symObjAddr: 0xC50, symBinAddr: 0x1000030D0, symSize: 0x10 }
  - { offsetInCU: 0xD3F0, offset: 0xD3F0, size: 0x8, addend: 0x0, symName: __ZNSt3__117__compressed_pairIP4CardNS_9allocatorIS1_EEEC2B7v160006IDnS4_EEOT_OT0_, symObjAddr: 0xC60, symBinAddr: 0x1000030E0, symSize: 0x40 }
  - { offsetInCU: 0xD447, offset: 0xD447, size: 0x8, addend: 0x0, symName: __ZNSt3__122__compressed_pair_elemIP4CardLi0ELb0EEC2B7v160006IDnvEEOT_, symObjAddr: 0xCA0, symBinAddr: 0x100003120, symSize: 0x20 }
  - { offsetInCU: 0xD488, offset: 0xD488, size: 0x8, addend: 0x0, symName: __ZNSt3__122__compressed_pair_elemINS_9allocatorI4CardEELi1ELb1EEC2B7v160006IS3_vEEOT_, symObjAddr: 0xCC0, symBinAddr: 0x100003140, symSize: 0x10 }
  - { offsetInCU: 0xD4C9, offset: 0xD4C9, size: 0x8, addend: 0x0, symName: __ZNSt3__117__compressed_pairIP4CardNS_9allocatorIS1_EEE5firstB7v160006Ev, symObjAddr: 0xCD0, symBinAddr: 0x100003150, symSize: 0x20 }
  - { offsetInCU: 0xD4EE, offset: 0xD4EE, size: 0x8, addend: 0x0, symName: __ZNSt3__122__compressed_pair_elemIP4CardLi0ELb0EE5__getB7v160006Ev, symObjAddr: 0xCF0, symBinAddr: 0x100003170, symSize: 0x10 }
  - { offsetInCU: 0xD513, offset: 0xD513, size: 0x8, addend: 0x0, symName: __ZNSt3__117__compressed_pairIP6PlayerNS_9allocatorIS1_EEE6secondB7v160006Ev, symObjAddr: 0xD00, symBinAddr: 0x100003180, symSize: 0x20 }
  - { offsetInCU: 0xD538, offset: 0xD538, size: 0x8, addend: 0x0, symName: __ZNSt3__122__compressed_pair_elemINS_9allocatorI6PlayerEELi1ELb1EE5__getB7v160006Ev, symObjAddr: 0xD20, symBinAddr: 0x1000031A0, symSize: 0x10 }
  - { offsetInCU: 0xD55D, offset: 0xD55D, size: 0x8, addend: 0x0, symName: __ZNSt3__16vectorI6PlayerNS_9allocatorIS1_EEE21_ConstructTransactionD2B7v160006Ev, symObjAddr: 0xD30, symBinAddr: 0x1000031B0, symSize: 0x20 }
  - { offsetInCU: 0xD585, offset: 0xD585, size: 0x8, addend: 0x0, symName: __ZNKSt3__16vectorI6PlayerNS_9allocatorIS1_EEE11__recommendB7v160006Em, symObjAddr: 0xD50, symBinAddr: 0x1000031D0, symSize: 0xA0 }
  - { offsetInCU: 0xD5D9, offset: 0xD5D9, size: 0x8, addend: 0x0, symName: __ZNKSt3__16vectorI6PlayerNS_9allocatorIS1_EEE4sizeB7v160006Ev, symObjAddr: 0xDF0, symBinAddr: 0x100003270, symSize: 0x20 }
  - { offsetInCU: 0xD5FE, offset: 0xD5FE, size: 0x8, addend: 0x0, symName: __ZNSt3__114__split_bufferI6PlayerRNS_9allocatorIS1_EEEC1EmmS4_, symObjAddr: 0xE10, symBinAddr: 0x100003290, symSize: 0x40 }
  - { offsetInCU: 0xD653, offset: 0xD653, size: 0x8, addend: 0x0, symName: __ZNSt3__114__split_bufferI6PlayerRNS_9allocatorIS1_EEED1Ev, symObjAddr: 0xF80, symBinAddr: 0x100003400, symSize: 0x20 }
  - { offsetInCU: 0xD67D, offset: 0xD67D, size: 0x8, addend: 0x0, symName: __ZNKSt3__16vectorI6PlayerNS_9allocatorIS1_EEE8max_sizeEv, symObjAddr: 0xFA0, symBinAddr: 0x100003420, symSize: 0x60 }
  - { offsetInCU: 0xD6A4, offset: 0xD6A4, size: 0x8, addend: 0x0, symName: __ZNKSt3__16vectorI6PlayerNS_9allocatorIS1_EEE20__throw_length_errorB7v160006Ev, symObjAddr: 0x1000, symBinAddr: 0x100003480, symSize: 0x20 }
  - { offsetInCU: 0xD6C9, offset: 0xD6C9, size: 0x8, addend: 0x0, symName: __ZNKSt3__16vectorI6PlayerNS_9allocatorIS1_EEE8capacityB7v160006Ev, symObjAddr: 0x1020, symBinAddr: 0x1000034A0, symSize: 0x30 }
  - { offsetInCU: 0xD6F8, offset: 0xD6F8, size: 0x8, addend: 0x0, symName: __ZNSt3__116allocator_traitsINS_9allocatorI6PlayerEEE8max_sizeB7v160006IS3_vEEmRKS3_, symObjAddr: 0x10B0, symBinAddr: 0x100003530, symSize: 0x20 }
  - { offsetInCU: 0xD726, offset: 0xD726, size: 0x8, addend: 0x0, symName: __ZNKSt3__16vectorI6PlayerNS_9allocatorIS1_EEE7__allocB7v160006Ev, symObjAddr: 0x10D0, symBinAddr: 0x100003550, symSize: 0x20 }
  - { offsetInCU: 0xD74B, offset: 0xD74B, size: 0x8, addend: 0x0, symName: __ZNSt3__114numeric_limitsIlE3maxB7v160006Ev, symObjAddr: 0x10F0, symBinAddr: 0x100003570, symSize: 0x10 }
  - { offsetInCU: 0xD773, offset: 0xD773, size: 0x8, addend: 0x0, symName: __ZNKSt3__16__lessImmEclB7v160006ERKmS3_, symObjAddr: 0x1150, symBinAddr: 0x1000035D0, symSize: 0x30 }
  - { offsetInCU: 0xD7B4, offset: 0xD7B4, size: 0x8, addend: 0x0, symName: __ZNKSt3__19allocatorI6PlayerE8max_sizeB7v160006Ev, symObjAddr: 0x1180, symBinAddr: 0x100003600, symSize: 0x20 }
  - { offsetInCU: 0xD7D9, offset: 0xD7D9, size: 0x8, addend: 0x0, symName: __ZNKSt3__117__compressed_pairIP6PlayerNS_9allocatorIS1_EEE6secondB7v160006Ev, symObjAddr: 0x11A0, symBinAddr: 0x100003620, symSize: 0x20 }
  - { offsetInCU: 0xD7FE, offset: 0xD7FE, size: 0x8, addend: 0x0, symName: __ZNKSt3__122__compressed_pair_elemINS_9allocatorI6PlayerEELi1ELb1EE5__getB7v160006Ev, symObjAddr: 0x11C0, symBinAddr: 0x100003640, symSize: 0x10 }
  - { offsetInCU: 0xD823, offset: 0xD823, size: 0x8, addend: 0x0, symName: __ZNSt3__123__libcpp_numeric_limitsIlLb1EE3maxB7v160006Ev, symObjAddr: 0x11D0, symBinAddr: 0x100003650, symSize: 0x10 }
  - { offsetInCU: 0xD837, offset: 0xD837, size: 0x8, addend: 0x0, symName: __ZNSt12length_errorC1B7v160006EPKc, symObjAddr: 0x1250, symBinAddr: 0x1000036D0, symSize: 0x30 }
  - { offsetInCU: 0xD86E, offset: 0xD86E, size: 0x8, addend: 0x0, symName: __ZNSt12length_errorC2B7v160006EPKc, symObjAddr: 0x1280, symBinAddr: 0x100003700, symSize: 0x40 }
  - { offsetInCU: 0xD8A5, offset: 0xD8A5, size: 0x8, addend: 0x0, symName: __ZNKSt3__16vectorI6PlayerNS_9allocatorIS1_EEE9__end_capB7v160006Ev, symObjAddr: 0x12C0, symBinAddr: 0x100003740, symSize: 0x20 }
  - { offsetInCU: 0xD8CA, offset: 0xD8CA, size: 0x8, addend: 0x0, symName: __ZNKSt3__117__compressed_pairIP6PlayerNS_9allocatorIS1_EEE5firstB7v160006Ev, symObjAddr: 0x12E0, symBinAddr: 0x100003760, symSize: 0x20 }
  - { offsetInCU: 0xD8EF, offset: 0xD8EF, size: 0x8, addend: 0x0, symName: __ZNKSt3__122__compressed_pair_elemIP6PlayerLi0ELb0EE5__getB7v160006Ev, symObjAddr: 0x1300, symBinAddr: 0x100003780, symSize: 0x10 }
  - { offsetInCU: 0xD914, offset: 0xD914, size: 0x8, addend: 0x0, symName: __ZNSt3__114__split_bufferI6PlayerRNS_9allocatorIS1_EEEC2EmmS4_, symObjAddr: 0x1360, symBinAddr: 0x1000037E0, symSize: 0xD0 }
  - { offsetInCU: 0xD987, offset: 0xD987, size: 0x8, addend: 0x0, symName: __ZNSt3__117__compressed_pairIP6PlayerRNS_9allocatorIS1_EEEC1B7v160006IDnS5_EEOT_OT0_, symObjAddr: 0x1430, symBinAddr: 0x1000038B0, symSize: 0x30 }
  - { offsetInCU: 0xD9DE, offset: 0xD9DE, size: 0x8, addend: 0x0, symName: __ZNSt3__114__split_bufferI6PlayerRNS_9allocatorIS1_EEE7__allocB7v160006Ev, symObjAddr: 0x14A0, symBinAddr: 0x100003920, symSize: 0x20 }
  - { offsetInCU: 0xDA03, offset: 0xDA03, size: 0x8, addend: 0x0, symName: __ZNSt3__114__split_bufferI6PlayerRNS_9allocatorIS1_EEE9__end_capB7v160006Ev, symObjAddr: 0x14C0, symBinAddr: 0x100003940, symSize: 0x20 }
  - { offsetInCU: 0xDA28, offset: 0xDA28, size: 0x8, addend: 0x0, symName: __ZNSt3__117__compressed_pairIP6PlayerRNS_9allocatorIS1_EEEC2B7v160006IDnS5_EEOT_OT0_, symObjAddr: 0x14E0, symBinAddr: 0x100003960, symSize: 0x40 }
  - { offsetInCU: 0xDA7F, offset: 0xDA7F, size: 0x8, addend: 0x0, symName: __ZNSt3__122__compressed_pair_elemIRNS_9allocatorI6PlayerEELi1ELb0EEC2B7v160006IS4_vEEOT_, symObjAddr: 0x1520, symBinAddr: 0x1000039A0, symSize: 0x20 }
  - { offsetInCU: 0xDAC0, offset: 0xDAC0, size: 0x8, addend: 0x0, symName: __ZNSt3__19allocatorI6PlayerE8allocateB7v160006Em, symObjAddr: 0x1540, symBinAddr: 0x1000039C0, symSize: 0x50 }
  - { offsetInCU: 0xDAF3, offset: 0xDAF3, size: 0x8, addend: 0x0, symName: __ZNSt3__117__compressed_pairIP6PlayerRNS_9allocatorIS1_EEE6secondB7v160006Ev, symObjAddr: 0x1610, symBinAddr: 0x100003A90, symSize: 0x20 }
  - { offsetInCU: 0xDB18, offset: 0xDB18, size: 0x8, addend: 0x0, symName: __ZNSt3__122__compressed_pair_elemIRNS_9allocatorI6PlayerEELi1ELb0EE5__getB7v160006Ev, symObjAddr: 0x1630, symBinAddr: 0x100003AB0, symSize: 0x20 }
  - { offsetInCU: 0xDB3D, offset: 0xDB3D, size: 0x8, addend: 0x0, symName: __ZNSt3__117__compressed_pairIP6PlayerRNS_9allocatorIS1_EEE5firstB7v160006Ev, symObjAddr: 0x1650, symBinAddr: 0x100003AD0, symSize: 0x20 }
  - { offsetInCU: 0xDB62, offset: 0xDB62, size: 0x8, addend: 0x0, symName: __ZNKSt3__16vectorI6PlayerNS_9allocatorIS1_EEE17__annotate_deleteB7v160006Ev, symObjAddr: 0x1670, symBinAddr: 0x100003AF0, symSize: 0xB0 }
  - { offsetInCU: 0xDB87, offset: 0xDB87, size: 0x8, addend: 0x0, symName: __ZNSt3__116reverse_iteratorIP6PlayerEC1B7v160006ES2_, symObjAddr: 0x18A0, symBinAddr: 0x100003D20, symSize: 0x30 }
  - { offsetInCU: 0xDBBE, offset: 0xDBBE, size: 0x8, addend: 0x0, symName: __ZNKSt3__116reverse_iteratorIP6PlayerE4baseB7v160006Ev, symObjAddr: 0x18D0, symBinAddr: 0x100003D50, symSize: 0x20 }
  - { offsetInCU: 0xDBE3, offset: 0xDBE3, size: 0x8, addend: 0x0, symName: __ZNKSt3__16vectorI6PlayerNS_9allocatorIS1_EEE14__annotate_newB7v160006Em, symObjAddr: 0x1930, symBinAddr: 0x100003DB0, symSize: 0xB0 }
  - { offsetInCU: 0xDC17, offset: 0xDC17, size: 0x8, addend: 0x0, symName: __ZNKSt3__16vectorI6PlayerNS_9allocatorIS1_EEE31__annotate_contiguous_containerB7v160006EPKvS6_S6_S6_, symObjAddr: 0x19F0, symBinAddr: 0x100003E70, symSize: 0x20 }
  - { offsetInCU: 0xDC68, offset: 0xDC68, size: 0x8, addend: 0x0, symName: __ZNKSt3__16vectorI6PlayerNS_9allocatorIS1_EEE4dataB7v160006Ev, symObjAddr: 0x1A10, symBinAddr: 0x100003E90, symSize: 0x20 }
  - { offsetInCU: 0xDC8D, offset: 0xDC8D, size: 0x8, addend: 0x0, symName: __ZNSt3__129_AllocatorDestroyRangeReverseINS_9allocatorI6PlayerEENS_16reverse_iteratorIPS2_EEEC1B7v160006ERS3_RS6_S9_, symObjAddr: 0x1A90, symBinAddr: 0x100003F10, symSize: 0x40 }
  - { offsetInCU: 0xDCE3, offset: 0xDCE3, size: 0x8, addend: 0x0, symName: __ZNKSt3__116reverse_iteratorIP6PlayerEdeB7v160006Ev, symObjAddr: 0x1B30, symBinAddr: 0x100003FB0, symSize: 0x30 }
  - { offsetInCU: 0xDD16, offset: 0xDD16, size: 0x8, addend: 0x0, symName: __ZNSt3__116reverse_iteratorIP6PlayerEppB7v160006Ev, symObjAddr: 0x1B60, symBinAddr: 0x100003FE0, symSize: 0x20 }
  - { offsetInCU: 0xDD3B, offset: 0xDD3B, size: 0x8, addend: 0x0, symName: __ZNSt3__128__exception_guard_exceptionsINS_29_AllocatorDestroyRangeReverseINS_9allocatorI6PlayerEENS_16reverse_iteratorIPS3_EEEEE10__completeB7v160006Ev, symObjAddr: 0x1B80, symBinAddr: 0x100004000, symSize: 0x20 }
  - { offsetInCU: 0xDD60, offset: 0xDD60, size: 0x8, addend: 0x0, symName: __ZNSt3__128__exception_guard_exceptionsINS_29_AllocatorDestroyRangeReverseINS_9allocatorI6PlayerEENS_16reverse_iteratorIPS3_EEEEED1B7v160006Ev, symObjAddr: 0x1BA0, symBinAddr: 0x100004020, symSize: 0x20 }
  - { offsetInCU: 0xDD89, offset: 0xDD89, size: 0x8, addend: 0x0, symName: __ZNSt3__128__exception_guard_exceptionsINS_29_AllocatorDestroyRangeReverseINS_9allocatorI6PlayerEENS_16reverse_iteratorIPS3_EEEEEC1B7v160006ES8_, symObjAddr: 0x1BC0, symBinAddr: 0x100004040, symSize: 0x40 }
  - { offsetInCU: 0xDDC0, offset: 0xDDC0, size: 0x8, addend: 0x0, symName: __ZNSt3__128__exception_guard_exceptionsINS_29_AllocatorDestroyRangeReverseINS_9allocatorI6PlayerEENS_16reverse_iteratorIPS3_EEEEEC2B7v160006ES8_, symObjAddr: 0x1C00, symBinAddr: 0x100004080, symSize: 0x30 }
  - { offsetInCU: 0xDDF7, offset: 0xDDF7, size: 0x8, addend: 0x0, symName: __ZNSt3__129_AllocatorDestroyRangeReverseINS_9allocatorI6PlayerEENS_16reverse_iteratorIPS2_EEEC2B7v160006ERS3_RS6_S9_, symObjAddr: 0x1C30, symBinAddr: 0x1000040B0, symSize: 0x40 }
  - { offsetInCU: 0xDE52, offset: 0xDE52, size: 0x8, addend: 0x0, symName: __ZNSt3__119__to_address_helperINS_16reverse_iteratorIP6PlayerEEvE6__callB7v160006ERKS4_, symObjAddr: 0x1C70, symBinAddr: 0x1000040F0, symSize: 0x40 }
  - { offsetInCU: 0xDE75, offset: 0xDE75, size: 0x8, addend: 0x0, symName: __ZNKSt3__116reverse_iteratorIP6PlayerEptB7v160006Ev, symObjAddr: 0x1CB0, symBinAddr: 0x100004130, symSize: 0x20 }
  - { offsetInCU: 0xDE9A, offset: 0xDE9A, size: 0x8, addend: 0x0, symName: __ZNSt3__128__exception_guard_exceptionsINS_29_AllocatorDestroyRangeReverseINS_9allocatorI6PlayerEENS_16reverse_iteratorIPS3_EEEEED2B7v160006Ev, symObjAddr: 0x1CD0, symBinAddr: 0x100004150, symSize: 0x40 }
  - { offsetInCU: 0xDEC3, offset: 0xDEC3, size: 0x8, addend: 0x0, symName: __ZNKSt3__129_AllocatorDestroyRangeReverseINS_9allocatorI6PlayerEENS_16reverse_iteratorIPS2_EEEclB7v160006Ev, symObjAddr: 0x1D10, symBinAddr: 0x100004190, symSize: 0xF0 }
  - { offsetInCU: 0xDEE9, offset: 0xDEE9, size: 0x8, addend: 0x0, symName: __ZNSt3__116reverse_iteratorINS0_IP6PlayerEEEC1B7v160006ES3_, symObjAddr: 0x1E70, symBinAddr: 0x1000042F0, symSize: 0x30 }
  - { offsetInCU: 0xDF20, offset: 0xDF20, size: 0x8, addend: 0x0, symName: __ZNSt3__116allocator_traitsINS_9allocatorI6PlayerEEE7destroyB7v160006IS2_vEEvRS3_PT_, symObjAddr: 0x1EF0, symBinAddr: 0x100004370, symSize: 0x30 }
  - { offsetInCU: 0xDF5D, offset: 0xDF5D, size: 0x8, addend: 0x0, symName: __ZNSt3__116reverse_iteratorINS0_IP6PlayerEEEppB7v160006Ev, symObjAddr: 0x1F40, symBinAddr: 0x1000043C0, symSize: 0x30 }
  - { offsetInCU: 0xDF82, offset: 0xDF82, size: 0x8, addend: 0x0, symName: __ZNKSt3__116reverse_iteratorINS0_IP6PlayerEEE4baseB7v160006Ev, symObjAddr: 0x1F70, symBinAddr: 0x1000043F0, symSize: 0x20 }
  - { offsetInCU: 0xDFA7, offset: 0xDFA7, size: 0x8, addend: 0x0, symName: __ZNSt3__19allocatorI6PlayerE7destroyB7v160006EPS1_, symObjAddr: 0x1F90, symBinAddr: 0x100004410, symSize: 0x20 }
  - { offsetInCU: 0xDFDF, offset: 0xDFDF, size: 0x8, addend: 0x0, symName: __ZNSt3__119__to_address_helperINS_16reverse_iteratorINS1_IP6PlayerEEEEvE6__callB7v160006ERKS5_, symObjAddr: 0x1FB0, symBinAddr: 0x100004430, symSize: 0x40 }
  - { offsetInCU: 0xE002, offset: 0xE002, size: 0x8, addend: 0x0, symName: __ZNKSt3__116reverse_iteratorINS0_IP6PlayerEEEptB7v160006Ev, symObjAddr: 0x1FF0, symBinAddr: 0x100004470, symSize: 0x20 }
  - { offsetInCU: 0xE027, offset: 0xE027, size: 0x8, addend: 0x0, symName: __ZNKSt3__116reverse_iteratorINS0_IP6PlayerEEEdeB7v160006Ev, symObjAddr: 0x2010, symBinAddr: 0x100004490, symSize: 0x40 }
  - { offsetInCU: 0xE05A, offset: 0xE05A, size: 0x8, addend: 0x0, symName: __ZNSt3__116reverse_iteratorIP6PlayerEmmB7v160006Ev, symObjAddr: 0x2050, symBinAddr: 0x1000044D0, symSize: 0x20 }
  - { offsetInCU: 0xE07F, offset: 0xE07F, size: 0x8, addend: 0x0, symName: __ZNSt3__116reverse_iteratorINS0_IP6PlayerEEEC2B7v160006ES3_, symObjAddr: 0x2070, symBinAddr: 0x1000044F0, symSize: 0x40 }
  - { offsetInCU: 0xE0B6, offset: 0xE0B6, size: 0x8, addend: 0x0, symName: __ZNSt3__116reverse_iteratorIP6PlayerEC2B7v160006ES2_, symObjAddr: 0x20B0, symBinAddr: 0x100004530, symSize: 0x30 }
  - { offsetInCU: 0xE0ED, offset: 0xE0ED, size: 0x8, addend: 0x0, symName: __ZNSt3__114__split_bufferI6PlayerRNS_9allocatorIS1_EEED2Ev, symObjAddr: 0x20E0, symBinAddr: 0x100004560, symSize: 0x70 }
  - { offsetInCU: 0xE118, offset: 0xE118, size: 0x8, addend: 0x0, symName: __ZNSt3__114__split_bufferI6PlayerRNS_9allocatorIS1_EEE5clearB7v160006Ev, symObjAddr: 0x2150, symBinAddr: 0x1000045D0, symSize: 0x20 }
  - { offsetInCU: 0xE13D, offset: 0xE13D, size: 0x8, addend: 0x0, symName: __ZNSt3__116allocator_traitsINS_9allocatorI6PlayerEEE10deallocateB7v160006ERS3_PS2_m, symObjAddr: 0x2170, symBinAddr: 0x1000045F0, symSize: 0x30 }
  - { offsetInCU: 0xE17F, offset: 0xE17F, size: 0x8, addend: 0x0, symName: __ZNKSt3__114__split_bufferI6PlayerRNS_9allocatorIS1_EEE8capacityB7v160006Ev, symObjAddr: 0x21A0, symBinAddr: 0x100004620, symSize: 0x30 }
  - { offsetInCU: 0xE1A4, offset: 0xE1A4, size: 0x8, addend: 0x0, symName: __ZNSt3__114__split_bufferI6PlayerRNS_9allocatorIS1_EEE17__destruct_at_endB7v160006EPS1_, symObjAddr: 0x21D0, symBinAddr: 0x100004650, symSize: 0x30 }
  - { offsetInCU: 0xE1D6, offset: 0xE1D6, size: 0x8, addend: 0x0, symName: __ZNSt3__114__split_bufferI6PlayerRNS_9allocatorIS1_EEE17__destruct_at_endB7v160006EPS1_NS_17integral_constantIbLb0EEE, symObjAddr: 0x2200, symBinAddr: 0x100004680, symSize: 0x80 }
  - { offsetInCU: 0xE216, offset: 0xE216, size: 0x8, addend: 0x0, symName: __ZNSt3__19allocatorI6PlayerE10deallocateB7v160006EPS1_m, symObjAddr: 0x2280, symBinAddr: 0x100004700, symSize: 0x40 }
  - { offsetInCU: 0xE257, offset: 0xE257, size: 0x8, addend: 0x0, symName: __ZNKSt3__114__split_bufferI6PlayerRNS_9allocatorIS1_EEE9__end_capB7v160006Ev, symObjAddr: 0x2330, symBinAddr: 0x1000047B0, symSize: 0x20 }
  - { offsetInCU: 0xE27C, offset: 0xE27C, size: 0x8, addend: 0x0, symName: __ZNKSt3__117__compressed_pairIP6PlayerRNS_9allocatorIS1_EEE5firstB7v160006Ev, symObjAddr: 0x2350, symBinAddr: 0x1000047D0, symSize: 0x20 }
  - { offsetInCU: 0xE2A1, offset: 0xE2A1, size: 0x8, addend: 0x0, symName: __ZN6PlayerC2Ev, symObjAddr: 0x2370, symBinAddr: 0x1000047F0, symSize: 0x30 }
  - { offsetInCU: 0xE2CA, offset: 0xE2CA, size: 0x8, addend: 0x0, symName: __ZNSt3__16vectorI4CardNS_9allocatorIS1_EEEC1B7v160006Ev, symObjAddr: 0x23A0, symBinAddr: 0x100004820, symSize: 0x20 }
  - { offsetInCU: 0xE2F3, offset: 0xE2F3, size: 0x8, addend: 0x0, symName: __ZNSt3__16vectorI4CardNS_9allocatorIS1_EEEC2B7v160006Ev, symObjAddr: 0x23C0, symBinAddr: 0x100004840, symSize: 0x60 }
  - { offsetInCU: 0xE31C, offset: 0xE31C, size: 0x8, addend: 0x0, symName: __ZNSt3__117__compressed_pairIP4CardNS_9allocatorIS1_EEEC1B7v160006IDnNS_18__default_init_tagEEEOT_OT0_, symObjAddr: 0x2420, symBinAddr: 0x1000048A0, symSize: 0x30 }
  - { offsetInCU: 0xE373, offset: 0xE373, size: 0x8, addend: 0x0, symName: __ZNSt3__117__compressed_pairIP4CardNS_9allocatorIS1_EEEC2B7v160006IDnNS_18__default_init_tagEEEOT_OT0_, symObjAddr: 0x2450, symBinAddr: 0x1000048D0, symSize: 0x40 }
  - { offsetInCU: 0xE3CA, offset: 0xE3CA, size: 0x8, addend: 0x0, symName: __ZNSt3__122__compressed_pair_elemINS_9allocatorI4CardEELi1ELb1EEC2B7v160006ENS_18__default_init_tagE, symObjAddr: 0x2490, symBinAddr: 0x100004910, symSize: 0x20 }
  - { offsetInCU: 0xE3FE, offset: 0xE3FE, size: 0x8, addend: 0x0, symName: __ZNSt3__19allocatorI4CardEC2B7v160006Ev, symObjAddr: 0x24B0, symBinAddr: 0x100004930, symSize: 0x20 }
  - { offsetInCU: 0xE427, offset: 0xE427, size: 0x8, addend: 0x0, symName: __ZNSt3__116__non_trivial_ifILb1ENS_9allocatorI4CardEEEC2B7v160006Ev, symObjAddr: 0x24D0, symBinAddr: 0x100004950, symSize: 0x10 }
  - { offsetInCU: 0xE450, offset: 0xE450, size: 0x8, addend: 0x0, symName: __ZN6PlayerD2Ev, symObjAddr: 0x24E0, symBinAddr: 0x100004960, symSize: 0x20 }
  - { offsetInCU: 0xE47B, offset: 0xE47B, size: 0x8, addend: 0x0, symName: __ZNSt3__16vectorI4CardNS_9allocatorIS1_EEED1B7v160006Ev, symObjAddr: 0x2500, symBinAddr: 0x100004980, symSize: 0x20 }
  - { offsetInCU: 0xE4A4, offset: 0xE4A4, size: 0x8, addend: 0x0, symName: __ZNSt3__16vectorI4CardNS_9allocatorIS1_EEED2B7v160006Ev, symObjAddr: 0x2520, symBinAddr: 0x1000049A0, symSize: 0x40 }
  - { offsetInCU: 0xE4CD, offset: 0xE4CD, size: 0x8, addend: 0x0, symName: __ZNSt3__16vectorI4CardNS_9allocatorIS1_EEE16__destroy_vectorC1ERS4_, symObjAddr: 0x2560, symBinAddr: 0x1000049E0, symSize: 0x30 }
  - { offsetInCU: 0xE505, offset: 0xE505, size: 0x8, addend: 0x0, symName: __ZNSt3__16vectorI4CardNS_9allocatorIS1_EEE16__destroy_vectorclB7v160006Ev, symObjAddr: 0x2590, symBinAddr: 0x100004A10, symSize: 0x90 }
  - { offsetInCU: 0xE52A, offset: 0xE52A, size: 0x8, addend: 0x0, symName: __ZNSt3__16vectorI4CardNS_9allocatorIS1_EEE16__destroy_vectorC2ERS4_, symObjAddr: 0x2620, symBinAddr: 0x100004AA0, symSize: 0x20 }
  - { offsetInCU: 0xE562, offset: 0xE562, size: 0x8, addend: 0x0, symName: __ZNKSt3__16vectorI4CardNS_9allocatorIS1_EEE17__annotate_deleteB7v160006Ev, symObjAddr: 0x2640, symBinAddr: 0x100004AC0, symSize: 0xB0 }
  - { offsetInCU: 0xE587, offset: 0xE587, size: 0x8, addend: 0x0, symName: __ZNSt3__16vectorI4CardNS_9allocatorIS1_EEE7__clearB7v160006Ev, symObjAddr: 0x2700, symBinAddr: 0x100004B80, symSize: 0x20 }
  - { offsetInCU: 0xE5AC, offset: 0xE5AC, size: 0x8, addend: 0x0, symName: __ZNSt3__116allocator_traitsINS_9allocatorI4CardEEE10deallocateB7v160006ERS3_PS2_m, symObjAddr: 0x2720, symBinAddr: 0x100004BA0, symSize: 0x30 }
  - { offsetInCU: 0xE5EE, offset: 0xE5EE, size: 0x8, addend: 0x0, symName: __ZNKSt3__16vectorI4CardNS_9allocatorIS1_EEE8capacityB7v160006Ev, symObjAddr: 0x2750, symBinAddr: 0x100004BD0, symSize: 0x30 }
  - { offsetInCU: 0xE613, offset: 0xE613, size: 0x8, addend: 0x0, symName: __ZNKSt3__16vectorI4CardNS_9allocatorIS1_EEE31__annotate_contiguous_containerB7v160006EPKvS6_S6_S6_, symObjAddr: 0x2780, symBinAddr: 0x100004C00, symSize: 0x20 }
  - { offsetInCU: 0xE664, offset: 0xE664, size: 0x8, addend: 0x0, symName: __ZNKSt3__16vectorI4CardNS_9allocatorIS1_EEE4dataB7v160006Ev, symObjAddr: 0x27A0, symBinAddr: 0x100004C20, symSize: 0x20 }
  - { offsetInCU: 0xE689, offset: 0xE689, size: 0x8, addend: 0x0, symName: __ZNKSt3__16vectorI4CardNS_9allocatorIS1_EEE4sizeB7v160006Ev, symObjAddr: 0x27C0, symBinAddr: 0x100004C40, symSize: 0x20 }
  - { offsetInCU: 0xE6AE, offset: 0xE6AE, size: 0x8, addend: 0x0, symName: __ZNSt3__16vectorI4CardNS_9allocatorIS1_EEE22__base_destruct_at_endB7v160006EPS1_, symObjAddr: 0x27F0, symBinAddr: 0x100004C70, symSize: 0x80 }
  - { offsetInCU: 0xE6F1, offset: 0xE6F1, size: 0x8, addend: 0x0, symName: __ZNSt3__116allocator_traitsINS_9allocatorI4CardEEE7destroyB7v160006IS2_vEEvRS3_PT_, symObjAddr: 0x2870, symBinAddr: 0x100004CF0, symSize: 0x30 }
  - { offsetInCU: 0xE72E, offset: 0xE72E, size: 0x8, addend: 0x0, symName: __ZNSt3__19allocatorI4CardE7destroyB7v160006EPS1_, symObjAddr: 0x28A0, symBinAddr: 0x100004D20, symSize: 0x10 }
  - { offsetInCU: 0xE761, offset: 0xE761, size: 0x8, addend: 0x0, symName: __ZNSt3__19allocatorI4CardE10deallocateB7v160006EPS1_m, symObjAddr: 0x28B0, symBinAddr: 0x100004D30, symSize: 0x40 }
  - { offsetInCU: 0xE7A2, offset: 0xE7A2, size: 0x8, addend: 0x0, symName: __ZNKSt3__16vectorI4CardNS_9allocatorIS1_EEE9__end_capB7v160006Ev, symObjAddr: 0x28F0, symBinAddr: 0x100004D70, symSize: 0x20 }
  - { offsetInCU: 0xE7C7, offset: 0xE7C7, size: 0x8, addend: 0x0, symName: __ZNKSt3__117__compressed_pairIP4CardNS_9allocatorIS1_EEE5firstB7v160006Ev, symObjAddr: 0x2910, symBinAddr: 0x100004D90, symSize: 0x20 }
  - { offsetInCU: 0xE7EC, offset: 0xE7EC, size: 0x8, addend: 0x0, symName: __ZNKSt3__122__compressed_pair_elemIP4CardLi0ELb0EE5__getB7v160006Ev, symObjAddr: 0x2930, symBinAddr: 0x100004DB0, symSize: 0x10 }
  - { offsetInCU: 0xE811, offset: 0xE811, size: 0x8, addend: 0x0, symName: __ZNSt3__16vectorI6PlayerNS_9allocatorIS1_EEED2B7v160006Ev, symObjAddr: 0x2940, symBinAddr: 0x100004DC0, symSize: 0x40 }
  - { offsetInCU: 0xE83A, offset: 0xE83A, size: 0x8, addend: 0x0, symName: __ZNSt3__16vectorI6PlayerNS_9allocatorIS1_EEE16__destroy_vectorC1ERS4_, symObjAddr: 0x2980, symBinAddr: 0x100004E00, symSize: 0x30 }
  - { offsetInCU: 0xE872, offset: 0xE872, size: 0x8, addend: 0x0, symName: __ZNSt3__16vectorI6PlayerNS_9allocatorIS1_EEE16__destroy_vectorclB7v160006Ev, symObjAddr: 0x29B0, symBinAddr: 0x100004E30, symSize: 0x90 }
  - { offsetInCU: 0xE897, offset: 0xE897, size: 0x8, addend: 0x0, symName: __ZNSt3__16vectorI6PlayerNS_9allocatorIS1_EEE16__destroy_vectorC2ERS4_, symObjAddr: 0x2A40, symBinAddr: 0x100004EC0, symSize: 0x20 }
  - { offsetInCU: 0xE8CF, offset: 0xE8CF, size: 0x8, addend: 0x0, symName: __ZNSt3__16vectorI6PlayerNS_9allocatorIS1_EEE7__clearB7v160006Ev, symObjAddr: 0x2A70, symBinAddr: 0x100004EF0, symSize: 0x20 }
  - { offsetInCU: 0xE8F4, offset: 0xE8F4, size: 0x8, addend: 0x0, symName: __ZNSt3__16vectorI6PlayerNS_9allocatorIS1_EEE22__base_destruct_at_endB7v160006EPS1_, symObjAddr: 0x2A90, symBinAddr: 0x100004F10, symSize: 0x80 }
  - { offsetInCU: 0xE994, offset: 0xE994, size: 0x8, addend: 0x0, symName: __ZN4DeckC1Ev, symObjAddr: 0x2B10, symBinAddr: 0x100004F90, symSize: 0x20 }
  - { offsetInCU: 0xE9BC, offset: 0xE9BC, size: 0x8, addend: 0x0, symName: __ZNSt3__16vectorI6PlayerNS_9allocatorIS1_EEE5beginB7v160006Ev, symObjAddr: 0x2B30, symBinAddr: 0x100004FB0, symSize: 0x30 }
  - { offsetInCU: 0xE9E2, offset: 0xE9E2, size: 0x8, addend: 0x0, symName: __ZNSt3__16vectorI6PlayerNS_9allocatorIS1_EEE3endB7v160006Ev, symObjAddr: 0x2B60, symBinAddr: 0x100004FE0, symSize: 0x30 }
  - { offsetInCU: 0xEA09, offset: 0xEA09, size: 0x8, addend: 0x0, symName: __ZNKSt3__111__wrap_iterIP6PlayerEdeB7v160006Ev, symObjAddr: 0x2BC0, symBinAddr: 0x100005040, symSize: 0x20 }
  - { offsetInCU: 0xEA2E, offset: 0xEA2E, size: 0x8, addend: 0x0, symName: __ZN6Player7addCardERK4Card, symObjAddr: 0x2BE0, symBinAddr: 0x100005060, symSize: 0x40 }
  - { offsetInCU: 0xEA61, offset: 0xEA61, size: 0x8, addend: 0x0, symName: __ZN4Deck8dealCardEv, symObjAddr: 0x2C20, symBinAddr: 0x1000050A0, symSize: 0x40 }
  - { offsetInCU: 0xEA94, offset: 0xEA94, size: 0x8, addend: 0x0, symName: __ZNSt3__111__wrap_iterIP6PlayerEppB7v160006Ev, symObjAddr: 0x2C60, symBinAddr: 0x1000050E0, symSize: 0x20 }
  - { offsetInCU: 0xEAB8, offset: 0xEAB8, size: 0x8, addend: 0x0, symName: __ZNSt3__16vectorI6PlayerNS_9allocatorIS1_EEEixB7v160006Em, symObjAddr: 0x2C80, symBinAddr: 0x100005100, symSize: 0x20 }
  - { offsetInCU: 0xEAEE, offset: 0xEAEE, size: 0x8, addend: 0x0, symName: __ZNK6Player11displayHandEv, symObjAddr: 0x2CA0, symBinAddr: 0x100005120, symSize: 0xC0 }
  - { offsetInCU: 0xEB66, offset: 0xEB66, size: 0x8, addend: 0x0, symName: __ZN4DeckD1Ev, symObjAddr: 0x2D60, symBinAddr: 0x1000051E0, symSize: 0x20 }
  - { offsetInCU: 0xEB91, offset: 0xEB91, size: 0x8, addend: 0x0, symName: __ZN4DeckC2Ev, symObjAddr: 0x2D80, symBinAddr: 0x100005200, symSize: 0xD0 }
  - { offsetInCU: 0xEBEA, offset: 0xEBEA, size: 0x8, addend: 0x0, symName: __ZNSt3__16vectorI4CardNS_9allocatorIS1_EEE9push_backB7v160006EOS1_, symObjAddr: 0x2E50, symBinAddr: 0x1000052D0, symSize: 0x60 }
  - { offsetInCU: 0xEC20, offset: 0xEC20, size: 0x8, addend: 0x0, symName: __ZN4CardC1ENS_4SuitENS_4RankE, symObjAddr: 0x2EB0, symBinAddr: 0x100005330, symSize: 0x30 }
  - { offsetInCU: 0xEC65, offset: 0xEC65, size: 0x8, addend: 0x0, symName: __ZN4Deck7shuffleEv, symObjAddr: 0x2EE0, symBinAddr: 0x100005360, symSize: 0x10 }
  - { offsetInCU: 0xEC8F, offset: 0xEC8F, size: 0x8, addend: 0x0, symName: __ZNSt3__16vectorI4CardNS_9allocatorIS1_EEE22__construct_one_at_endB7v160006IJS1_EEEvDpOT_, symObjAddr: 0x2EF0, symBinAddr: 0x100005370, symSize: 0x90 }
  - { offsetInCU: 0xECDC, offset: 0xECDC, size: 0x8, addend: 0x0, symName: __ZNSt3__16vectorI4CardNS_9allocatorIS1_EEE21__push_back_slow_pathIS1_EEvOT_, symObjAddr: 0x2F80, symBinAddr: 0x100005400, symSize: 0xD0 }
  - { offsetInCU: 0xED52, offset: 0xED52, size: 0x8, addend: 0x0, symName: __ZNSt3__16vectorI4CardNS_9allocatorIS1_EEE21_ConstructTransactionC1B7v160006ERS4_m, symObjAddr: 0x3050, symBinAddr: 0x1000054D0, symSize: 0x30 }
  - { offsetInCU: 0xED99, offset: 0xED99, size: 0x8, addend: 0x0, symName: __ZNSt3__116allocator_traitsINS_9allocatorI4CardEEE9constructB7v160006IS2_JS2_EvEEvRS3_PT_DpOT0_, symObjAddr: 0x3080, symBinAddr: 0x100005500, symSize: 0x30 }
  - { offsetInCU: 0xEDF0, offset: 0xEDF0, size: 0x8, addend: 0x0, symName: __ZNSt3__16vectorI4CardNS_9allocatorIS1_EEE21_ConstructTransactionD1B7v160006Ev, symObjAddr: 0x30B0, symBinAddr: 0x100005530, symSize: 0x20 }
  - { offsetInCU: 0xEE19, offset: 0xEE19, size: 0x8, addend: 0x0, symName: __ZNSt3__16vectorI4CardNS_9allocatorIS1_EEE21_ConstructTransactionC2B7v160006ERS4_m, symObjAddr: 0x30D0, symBinAddr: 0x100005550, symSize: 0x40 }
  - { offsetInCU: 0xEE60, offset: 0xEE60, size: 0x8, addend: 0x0, symName: __ZNSt3__19allocatorI4CardE9constructB7v160006IS1_JS1_EEEvPT_DpOT0_, symObjAddr: 0x3110, symBinAddr: 0x100005590, symSize: 0x20 }
  - { offsetInCU: 0xEEB5, offset: 0xEEB5, size: 0x8, addend: 0x0, symName: __ZNSt3__16vectorI4CardNS_9allocatorIS1_EEE21_ConstructTransactionD2B7v160006Ev, symObjAddr: 0x3130, symBinAddr: 0x1000055B0, symSize: 0x20 }
  - { offsetInCU: 0xEEDD, offset: 0xEEDD, size: 0x8, addend: 0x0, symName: __ZNKSt3__16vectorI4CardNS_9allocatorIS1_EEE11__recommendB7v160006Em, symObjAddr: 0x3150, symBinAddr: 0x1000055D0, symSize: 0xA0 }
  - { offsetInCU: 0xEF31, offset: 0xEF31, size: 0x8, addend: 0x0, symName: __ZNSt3__114__split_bufferI4CardRNS_9allocatorIS1_EEEC1EmmS4_, symObjAddr: 0x31F0, symBinAddr: 0x100005670, symSize: 0x40 }
  - { offsetInCU: 0xEF86, offset: 0xEF86, size: 0x8, addend: 0x0, symName: __ZNSt3__114__split_bufferI4CardRNS_9allocatorIS1_EEED1Ev, symObjAddr: 0x3360, symBinAddr: 0x1000057E0, symSize: 0x20 }
  - { offsetInCU: 0xEFB0, offset: 0xEFB0, size: 0x8, addend: 0x0, symName: __ZNKSt3__16vectorI4CardNS_9allocatorIS1_EEE8max_sizeEv, symObjAddr: 0x3380, symBinAddr: 0x100005800, symSize: 0x60 }
  - { offsetInCU: 0xEFD7, offset: 0xEFD7, size: 0x8, addend: 0x0, symName: __ZNKSt3__16vectorI4CardNS_9allocatorIS1_EEE20__throw_length_errorB7v160006Ev, symObjAddr: 0x33E0, symBinAddr: 0x100005860, symSize: 0x20 }
  - { offsetInCU: 0xF006, offset: 0xF006, size: 0x8, addend: 0x0, symName: __ZNSt3__116allocator_traitsINS_9allocatorI4CardEEE8max_sizeB7v160006IS3_vEEmRKS3_, symObjAddr: 0x3400, symBinAddr: 0x100005880, symSize: 0x20 }
  - { offsetInCU: 0xF034, offset: 0xF034, size: 0x8, addend: 0x0, symName: __ZNKSt3__16vectorI4CardNS_9allocatorIS1_EEE7__allocB7v160006Ev, symObjAddr: 0x3420, symBinAddr: 0x1000058A0, symSize: 0x20 }
  - { offsetInCU: 0xF059, offset: 0xF059, size: 0x8, addend: 0x0, symName: __ZNKSt3__19allocatorI4CardE8max_sizeB7v160006Ev, symObjAddr: 0x3440, symBinAddr: 0x1000058C0, symSize: 0x20 }
  - { offsetInCU: 0xF07E, offset: 0xF07E, size: 0x8, addend: 0x0, symName: __ZNKSt3__117__compressed_pairIP4CardNS_9allocatorIS1_EEE6secondB7v160006Ev, symObjAddr: 0x3460, symBinAddr: 0x1000058E0, symSize: 0x20 }
  - { offsetInCU: 0xF0A3, offset: 0xF0A3, size: 0x8, addend: 0x0, symName: __ZNKSt3__122__compressed_pair_elemINS_9allocatorI4CardEELi1ELb1EE5__getB7v160006Ev, symObjAddr: 0x3480, symBinAddr: 0x100005900, symSize: 0x10 }
  - { offsetInCU: 0xF0C8, offset: 0xF0C8, size: 0x8, addend: 0x0, symName: __ZNSt3__114__split_bufferI4CardRNS_9allocatorIS1_EEEC2EmmS4_, symObjAddr: 0x3490, symBinAddr: 0x100005910, symSize: 0xD0 }
  - { offsetInCU: 0xF13B, offset: 0xF13B, size: 0x8, addend: 0x0, symName: __ZNSt3__117__compressed_pairIP4CardRNS_9allocatorIS1_EEEC1B7v160006IDnS5_EEOT_OT0_, symObjAddr: 0x3560, symBinAddr: 0x1000059E0, symSize: 0x30 }
  - { offsetInCU: 0xF192, offset: 0xF192, size: 0x8, addend: 0x0, symName: __ZNSt3__114__split_bufferI4CardRNS_9allocatorIS1_EEE7__allocB7v160006Ev, symObjAddr: 0x35D0, symBinAddr: 0x100005A50, symSize: 0x20 }
  - { offsetInCU: 0xF1B7, offset: 0xF1B7, size: 0x8, addend: 0x0, symName: __ZNSt3__114__split_bufferI4CardRNS_9allocatorIS1_EEE9__end_capB7v160006Ev, symObjAddr: 0x35F0, symBinAddr: 0x100005A70, symSize: 0x20 }
  - { offsetInCU: 0xF1DC, offset: 0xF1DC, size: 0x8, addend: 0x0, symName: __ZNSt3__117__compressed_pairIP4CardRNS_9allocatorIS1_EEEC2B7v160006IDnS5_EEOT_OT0_, symObjAddr: 0x3610, symBinAddr: 0x100005A90, symSize: 0x40 }
  - { offsetInCU: 0xF233, offset: 0xF233, size: 0x8, addend: 0x0, symName: __ZNSt3__122__compressed_pair_elemIRNS_9allocatorI4CardEELi1ELb0EEC2B7v160006IS4_vEEOT_, symObjAddr: 0x3650, symBinAddr: 0x100005AD0, symSize: 0x20 }
  - { offsetInCU: 0xF274, offset: 0xF274, size: 0x8, addend: 0x0, symName: __ZNSt3__19allocatorI4CardE8allocateB7v160006Em, symObjAddr: 0x3670, symBinAddr: 0x100005AF0, symSize: 0x50 }
  - { offsetInCU: 0xF2A7, offset: 0xF2A7, size: 0x8, addend: 0x0, symName: __ZNSt3__117__compressed_pairIP4CardRNS_9allocatorIS1_EEE6secondB7v160006Ev, symObjAddr: 0x36C0, symBinAddr: 0x100005B40, symSize: 0x20 }
  - { offsetInCU: 0xF2CC, offset: 0xF2CC, size: 0x8, addend: 0x0, symName: __ZNSt3__122__compressed_pair_elemIRNS_9allocatorI4CardEELi1ELb0EE5__getB7v160006Ev, symObjAddr: 0x36E0, symBinAddr: 0x100005B60, symSize: 0x20 }
  - { offsetInCU: 0xF2F1, offset: 0xF2F1, size: 0x8, addend: 0x0, symName: __ZNSt3__117__compressed_pairIP4CardRNS_9allocatorIS1_EEE5firstB7v160006Ev, symObjAddr: 0x3700, symBinAddr: 0x100005B80, symSize: 0x20 }
  - { offsetInCU: 0xF316, offset: 0xF316, size: 0x8, addend: 0x0, symName: __ZNSt3__116reverse_iteratorIP4CardEC1B7v160006ES2_, symObjAddr: 0x3790, symBinAddr: 0x100005C10, symSize: 0x30 }
  - { offsetInCU: 0xF34D, offset: 0xF34D, size: 0x8, addend: 0x0, symName: __ZNKSt3__116reverse_iteratorIP4CardE4baseB7v160006Ev, symObjAddr: 0x37C0, symBinAddr: 0x100005C40, symSize: 0x20 }
  - { offsetInCU: 0xF372, offset: 0xF372, size: 0x8, addend: 0x0, symName: __ZNKSt3__16vectorI4CardNS_9allocatorIS1_EEE14__annotate_newB7v160006Em, symObjAddr: 0x3820, symBinAddr: 0x100005CA0, symSize: 0xB0 }
  - { offsetInCU: 0xF3C9, offset: 0xF3C9, size: 0x8, addend: 0x0, symName: __ZNKSt3__111__move_loopINS_17_ClassicAlgPolicyEEclB7v160006INS_16reverse_iteratorIP4CardEES7_S7_EENS_4pairIT_T1_EES9_T0_SA_, symObjAddr: 0x3D20, symBinAddr: 0x1000061A0, symSize: 0xA0 }
  - { offsetInCU: 0xF433, offset: 0xF433, size: 0x8, addend: 0x0, symName: __ZNSt3__18_IterOpsINS_17_ClassicAlgPolicyEE11__iter_moveB7v160006IRNS_16reverse_iteratorIP4CardEEEENS_9enable_ifIXsr12is_referenceIDTdeclsr3stdE7declvalIRT_EEEEE5valueEDTclsr3stdE4movedeclsr3stdE7declvalISB_EEEEE4typeEOSA_, symObjAddr: 0x3F40, symBinAddr: 0x1000063C0, symSize: 0x20 }
  - { offsetInCU: 0xF45F, offset: 0xF45F, size: 0x8, addend: 0x0, symName: __ZNKSt3__116reverse_iteratorIP4CardEdeB7v160006Ev, symObjAddr: 0x3F60, symBinAddr: 0x1000063E0, symSize: 0x30 }
  - { offsetInCU: 0xF492, offset: 0xF492, size: 0x8, addend: 0x0, symName: __ZNSt3__116reverse_iteratorIP4CardEppB7v160006Ev, symObjAddr: 0x3F90, symBinAddr: 0x100006410, symSize: 0x20 }
  - { offsetInCU: 0xF4B7, offset: 0xF4B7, size: 0x8, addend: 0x0, symName: __ZNSt3__18_IterOpsINS_17_ClassicAlgPolicyEE25__validate_iter_referenceB7v160006IRNS_16reverse_iteratorIP4CardEEEEvv, symObjAddr: 0x3FB0, symBinAddr: 0x100006430, symSize: 0x10 }
  - { offsetInCU: 0xF4D5, offset: 0xF4D5, size: 0x8, addend: 0x0, symName: __ZNSt3__118__unwrap_iter_implINS_16reverse_iteratorIP4CardEELb0EE8__unwrapB7v160006ES4_, symObjAddr: 0x3FC0, symBinAddr: 0x100006440, symSize: 0x20 }
  - { offsetInCU: 0xF4FD, offset: 0xF4FD, size: 0x8, addend: 0x0, symName: __ZNSt3__14pairINS_16reverse_iteratorIP4CardEES4_EC1B7v160006IS4_S4_LPv0EEEOT_OT0_, symObjAddr: 0x3FE0, symBinAddr: 0x100006460, symSize: 0x30 }
  - { offsetInCU: 0xF55A, offset: 0xF55A, size: 0x8, addend: 0x0, symName: __ZNSt3__14pairINS_16reverse_iteratorIP4CardEES4_EC2B7v160006IS4_S4_LPv0EEEOT_OT0_, symObjAddr: 0x4010, symBinAddr: 0x100006490, symSize: 0x40 }
  - { offsetInCU: 0xF5B7, offset: 0xF5B7, size: 0x8, addend: 0x0, symName: __ZNSt3__118__unwrap_iter_implINS_16reverse_iteratorIP4CardEELb0EE8__rewrapB7v160006ES4_S4_, symObjAddr: 0x4050, symBinAddr: 0x1000064D0, symSize: 0x30 }
  - { offsetInCU: 0xF5E5, offset: 0xF5E5, size: 0x8, addend: 0x0, symName: __ZNSt3__116reverse_iteratorIP4CardEC2B7v160006ES2_, symObjAddr: 0x4080, symBinAddr: 0x100006500, symSize: 0x30 }
  - { offsetInCU: 0xF61C, offset: 0xF61C, size: 0x8, addend: 0x0, symName: __ZNSt3__114__split_bufferI4CardRNS_9allocatorIS1_EEED2Ev, symObjAddr: 0x40B0, symBinAddr: 0x100006530, symSize: 0x70 }
  - { offsetInCU: 0xF647, offset: 0xF647, size: 0x8, addend: 0x0, symName: __ZNSt3__114__split_bufferI4CardRNS_9allocatorIS1_EEE5clearB7v160006Ev, symObjAddr: 0x4120, symBinAddr: 0x1000065A0, symSize: 0x20 }
  - { offsetInCU: 0xF66C, offset: 0xF66C, size: 0x8, addend: 0x0, symName: __ZNKSt3__114__split_bufferI4CardRNS_9allocatorIS1_EEE8capacityB7v160006Ev, symObjAddr: 0x4140, symBinAddr: 0x1000065C0, symSize: 0x30 }
  - { offsetInCU: 0xF691, offset: 0xF691, size: 0x8, addend: 0x0, symName: __ZNSt3__114__split_bufferI4CardRNS_9allocatorIS1_EEE17__destruct_at_endB7v160006EPS1_, symObjAddr: 0x4170, symBinAddr: 0x1000065F0, symSize: 0x30 }
  - { offsetInCU: 0xF6C3, offset: 0xF6C3, size: 0x8, addend: 0x0, symName: __ZNSt3__114__split_bufferI4CardRNS_9allocatorIS1_EEE17__destruct_at_endB7v160006EPS1_NS_17integral_constantIbLb0EEE, symObjAddr: 0x41A0, symBinAddr: 0x100006620, symSize: 0x80 }
  - { offsetInCU: 0xF703, offset: 0xF703, size: 0x8, addend: 0x0, symName: __ZNKSt3__114__split_bufferI4CardRNS_9allocatorIS1_EEE9__end_capB7v160006Ev, symObjAddr: 0x4220, symBinAddr: 0x1000066A0, symSize: 0x20 }
  - { offsetInCU: 0xF728, offset: 0xF728, size: 0x8, addend: 0x0, symName: __ZNKSt3__117__compressed_pairIP4CardRNS_9allocatorIS1_EEE5firstB7v160006Ev, symObjAddr: 0x4240, symBinAddr: 0x1000066C0, symSize: 0x20 }
  - { offsetInCU: 0xF74D, offset: 0xF74D, size: 0x8, addend: 0x0, symName: __ZN4CardC2ENS_4SuitENS_4RankE, symObjAddr: 0x4260, symBinAddr: 0x1000066E0, symSize: 0x20 }
  - { offsetInCU: 0xF792, offset: 0xF792, size: 0x8, addend: 0x0, symName: __ZNSt3__16vectorI6PlayerNS_9allocatorIS1_EEE11__make_iterB7v160006EPS1_, symObjAddr: 0x4280, symBinAddr: 0x100006700, symSize: 0x30 }
  - { offsetInCU: 0xF7C6, offset: 0xF7C6, size: 0x8, addend: 0x0, symName: __ZNSt3__111__wrap_iterIP6PlayerEC1B7v160006EPKvS2_, symObjAddr: 0x42B0, symBinAddr: 0x100006730, symSize: 0x30 }
  - { offsetInCU: 0xF80B, offset: 0xF80B, size: 0x8, addend: 0x0, symName: __ZNSt3__111__wrap_iterIP6PlayerEC2B7v160006EPKvS2_, symObjAddr: 0x42E0, symBinAddr: 0x100006760, symSize: 0x20 }
  - { offsetInCU: 0xF850, offset: 0xF850, size: 0x8, addend: 0x0, symName: __ZNKSt3__111__wrap_iterIP6PlayerE4baseB7v160006Ev, symObjAddr: 0x4340, symBinAddr: 0x1000067C0, symSize: 0x20 }
  - { offsetInCU: 0xF874, offset: 0xF874, size: 0x8, addend: 0x0, symName: __ZNSt3__16vectorI4CardNS_9allocatorIS1_EEE9push_backB7v160006ERKS1_, symObjAddr: 0x4360, symBinAddr: 0x1000067E0, symSize: 0x60 }
  - { offsetInCU: 0xF8AA, offset: 0xF8AA, size: 0x8, addend: 0x0, symName: __ZNK4Card8getValueEv, symObjAddr: 0x43C0, symBinAddr: 0x100006840, symSize: 0x70 }
  - { offsetInCU: 0xF8CF, offset: 0xF8CF, size: 0x8, addend: 0x0, symName: __ZNSt3__16vectorI4CardNS_9allocatorIS1_EEE22__construct_one_at_endB7v160006IJRKS1_EEEvDpOT_, symObjAddr: 0x4430, symBinAddr: 0x1000068B0, symSize: 0x90 }
  - { offsetInCU: 0xF91C, offset: 0xF91C, size: 0x8, addend: 0x0, symName: __ZNSt3__16vectorI4CardNS_9allocatorIS1_EEE21__push_back_slow_pathIRKS1_EEvOT_, symObjAddr: 0x44C0, symBinAddr: 0x100006940, symSize: 0xD0 }
  - { offsetInCU: 0xF979, offset: 0xF979, size: 0x8, addend: 0x0, symName: __ZNSt3__116allocator_traitsINS_9allocatorI4CardEEE9constructB7v160006IS2_JRKS2_EvEEvRS3_PT_DpOT0_, symObjAddr: 0x4590, symBinAddr: 0x100006A10, symSize: 0x30 }
  - { offsetInCU: 0xF9D0, offset: 0xF9D0, size: 0x8, addend: 0x0, symName: __ZNSt3__19allocatorI4CardE9constructB7v160006IS1_JRKS1_EEEvPT_DpOT0_, symObjAddr: 0x45C0, symBinAddr: 0x100006A40, symSize: 0x20 }
  - { offsetInCU: 0xFA25, offset: 0xFA25, size: 0x8, addend: 0x0, symName: __ZNSt3__16vectorI4CardNS_9allocatorIS1_EEE4backB7v160006Ev, symObjAddr: 0x45E0, symBinAddr: 0x100006A60, symSize: 0x20 }
  - { offsetInCU: 0xFA49, offset: 0xFA49, size: 0x8, addend: 0x0, symName: __ZNSt3__16vectorI4CardNS_9allocatorIS1_EEE8pop_backEv, symObjAddr: 0x4600, symBinAddr: 0x100006A80, symSize: 0x30 }
  - { offsetInCU: 0xFA70, offset: 0xFA70, size: 0x8, addend: 0x0, symName: __ZNSt3__16vectorI4CardNS_9allocatorIS1_EEE17__destruct_at_endB7v160006EPS1_, symObjAddr: 0x4630, symBinAddr: 0x100006AB0, symSize: 0x60 }
  - { offsetInCU: 0xFAB2, offset: 0xFAB2, size: 0x8, addend: 0x0, symName: __ZNSt3__16vectorI4CardNS_9allocatorIS1_EEE27__invalidate_iterators_pastB7v160006EPS1_, symObjAddr: 0x4690, symBinAddr: 0x100006B10, symSize: 0x10 }
  - { offsetInCU: 0xFAE8, offset: 0xFAE8, size: 0x8, addend: 0x0, symName: __ZNKSt3__16vectorI4CardNS_9allocatorIS1_EEE17__annotate_shrinkB7v160006Em, symObjAddr: 0x46A0, symBinAddr: 0x100006B20, symSize: 0xA0 }
  - { offsetInCU: 0xFB1B, offset: 0xFB1B, size: 0x8, addend: 0x0, symName: __ZNKSt3__16vectorI4CardNS_9allocatorIS1_EEE5beginB7v160006Ev, symObjAddr: 0x4740, symBinAddr: 0x100006BC0, symSize: 0x30 }
  - { offsetInCU: 0xFB41, offset: 0xFB41, size: 0x8, addend: 0x0, symName: __ZNKSt3__16vectorI4CardNS_9allocatorIS1_EEE3endB7v160006Ev, symObjAddr: 0x4770, symBinAddr: 0x100006BF0, symSize: 0x30 }
  - { offsetInCU: 0xFB68, offset: 0xFB68, size: 0x8, addend: 0x0, symName: __ZNKSt3__111__wrap_iterIPK4CardEdeB7v160006Ev, symObjAddr: 0x47D0, symBinAddr: 0x100006C50, symSize: 0x20 }
  - { offsetInCU: 0xFB8D, offset: 0xFB8D, size: 0x8, addend: 0x0, symName: __ZNK4Card7displayEv, symObjAddr: 0x47F0, symBinAddr: 0x100006C70, symSize: 0xD0 }
  - { offsetInCU: 0xFBB2, offset: 0xFBB2, size: 0x8, addend: 0x0, symName: __ZNSt3__111__wrap_iterIPK4CardEppB7v160006Ev, symObjAddr: 0x48C0, symBinAddr: 0x100006D40, symSize: 0x20 }
  - { offsetInCU: 0xFBD7, offset: 0xFBD7, size: 0x8, addend: 0x0, symName: __ZNKSt3__16vectorI4CardNS_9allocatorIS1_EEE11__make_iterB7v160006EPKS1_, symObjAddr: 0x48E0, symBinAddr: 0x100006D60, symSize: 0x30 }
  - { offsetInCU: 0xFC0B, offset: 0xFC0B, size: 0x8, addend: 0x0, symName: __ZNSt3__111__wrap_iterIPK4CardEC1B7v160006EPKvS3_, symObjAddr: 0x4910, symBinAddr: 0x100006D90, symSize: 0x30 }
  - { offsetInCU: 0xFC50, offset: 0xFC50, size: 0x8, addend: 0x0, symName: __ZNSt3__111__wrap_iterIPK4CardEC2B7v160006EPKvS3_, symObjAddr: 0x4940, symBinAddr: 0x100006DC0, symSize: 0x20 }
  - { offsetInCU: 0xFC95, offset: 0xFC95, size: 0x8, addend: 0x0, symName: __ZNKSt3__111__wrap_iterIPK4CardE4baseB7v160006Ev, symObjAddr: 0x49A0, symBinAddr: 0x100006E20, symSize: 0x20 }
  - { offsetInCU: 0xFCBA, offset: 0xFCBA, size: 0x8, addend: 0x0, symName: __ZN4DeckD2Ev, symObjAddr: 0x49C0, symBinAddr: 0x100006E40, symSize: 0x20 }
  - { offsetInCU: 0xFCE5, offset: 0xFCE5, size: 0x8, addend: 0x0, symName: __ZN13BlackjackGameD2Ev, symObjAddr: 0x49E0, symBinAddr: 0x100006E60, symSize: 0x20 }
  - { offsetInCU: 0xFD10, offset: 0xFD10, size: 0x8, addend: 0x0, symName: __ZNSt3__111char_traitsIcE6lengthEPKc, symObjAddr: 0x4BF0, symBinAddr: 0x100007070, symSize: 0x30 }
  - { offsetInCU: 0xFD51, offset: 0xFD51, size: 0x8, addend: 0x0, symName: __ZNKSt3__113basic_ostreamIcNS_11char_traitsIcEEE6sentrycvbB7v160006Ev, symObjAddr: 0x4C20, symBinAddr: 0x1000070A0, symSize: 0x20 }
  - { offsetInCU: 0xFD76, offset: 0xFD76, size: 0x8, addend: 0x0, symName: __ZNSt3__119ostreambuf_iteratorIcNS_11char_traitsIcEEEC1B7v160006ERNS_13basic_ostreamIcS2_EE, symObjAddr: 0x4E60, symBinAddr: 0x1000072E0, symSize: 0x30 }
  - { offsetInCU: 0xFDAC, offset: 0xFDAC, size: 0x8, addend: 0x0, symName: __ZNKSt3__18ios_base5flagsB7v160006Ev, symObjAddr: 0x4E90, symBinAddr: 0x100007310, symSize: 0x20 }
  - { offsetInCU: 0xFDD2, offset: 0xFDD2, size: 0x8, addend: 0x0, symName: __ZNKSt3__19basic_iosIcNS_11char_traitsIcEEE4fillB7v160006Ev, symObjAddr: 0x4EB0, symBinAddr: 0x100007330, symSize: 0x70 }
  - { offsetInCU: 0xFDF9, offset: 0xFDF9, size: 0x8, addend: 0x0, symName: __ZNKSt3__119ostreambuf_iteratorIcNS_11char_traitsIcEEE6failedB7v160006Ev, symObjAddr: 0x4F20, symBinAddr: 0x1000073A0, symSize: 0x20 }
  - { offsetInCU: 0xFE1E, offset: 0xFE1E, size: 0x8, addend: 0x0, symName: __ZNSt3__19basic_iosIcNS_11char_traitsIcEEE8setstateB7v160006Ej, symObjAddr: 0x4F40, symBinAddr: 0x1000073C0, symSize: 0x30 }
  - { offsetInCU: 0xFE51, offset: 0xFE51, size: 0x8, addend: 0x0, symName: __ZNKSt3__18ios_base5widthB7v160006Ev, symObjAddr: 0x4F70, symBinAddr: 0x1000073F0, symSize: 0x20 }
  - { offsetInCU: 0xFE78, offset: 0xFE78, size: 0x8, addend: 0x0, symName: __ZNSt3__115basic_streambufIcNS_11char_traitsIcEEE5sputnB7v160006EPKcl, symObjAddr: 0x4F90, symBinAddr: 0x100007410, symSize: 0x30 }
  - { offsetInCU: 0xFEB9, offset: 0xFEB9, size: 0x8, addend: 0x0, symName: __ZNSt3__112basic_stringIcNS_11char_traitsIcEENS_9allocatorIcEEEC1B7v160006Emc, symObjAddr: 0x4FC0, symBinAddr: 0x100007440, symSize: 0x30 }
  - { offsetInCU: 0xFF00, offset: 0xFF00, size: 0x8, addend: 0x0, symName: __ZNKSt3__112basic_stringIcNS_11char_traitsIcEENS_9allocatorIcEEE4dataB7v160006Ev, symObjAddr: 0x4FF0, symBinAddr: 0x100007470, symSize: 0x30 }
  - { offsetInCU: 0xFF24, offset: 0xFF24, size: 0x8, addend: 0x0, symName: __ZNSt3__18ios_base5widthB7v160006El, symObjAddr: 0x5020, symBinAddr: 0x1000074A0, symSize: 0x30 }
  - { offsetInCU: 0xFF69, offset: 0xFF69, size: 0x8, addend: 0x0, symName: __ZNSt3__112basic_stringIcNS_11char_traitsIcEENS_9allocatorIcEEEC2B7v160006Emc, symObjAddr: 0x5050, symBinAddr: 0x1000074D0, symSize: 0x50 }
  - { offsetInCU: 0xFFB0, offset: 0xFFB0, size: 0x8, addend: 0x0, symName: __ZNSt3__117__compressed_pairINS_12basic_stringIcNS_11char_traitsIcEENS_9allocatorIcEEE5__repES5_EC1B7v160006INS_18__default_init_tagESA_EEOT_OT0_, symObjAddr: 0x50A0, symBinAddr: 0x100007520, symSize: 0x30 }
  - { offsetInCU: 0x10007, offset: 0x10007, size: 0x8, addend: 0x0, symName: __ZNSt3__117__compressed_pairINS_12basic_stringIcNS_11char_traitsIcEENS_9allocatorIcEEE5__repES5_EC2B7v160006INS_18__default_init_tagESA_EEOT_OT0_, symObjAddr: 0x50E0, symBinAddr: 0x100007560, symSize: 0x30 }
  - { offsetInCU: 0x1005E, offset: 0x1005E, size: 0x8, addend: 0x0, symName: __ZNSt3__122__compressed_pair_elemINS_12basic_stringIcNS_11char_traitsIcEENS_9allocatorIcEEE5__repELi0ELb0EEC2B7v160006ENS_18__default_init_tagE, symObjAddr: 0x5110, symBinAddr: 0x100007590, symSize: 0x10 }
  - { offsetInCU: 0x10092, offset: 0x10092, size: 0x8, addend: 0x0, symName: __ZNSt3__122__compressed_pair_elemINS_9allocatorIcEELi1ELb1EEC2B7v160006ENS_18__default_init_tagE, symObjAddr: 0x5120, symBinAddr: 0x1000075A0, symSize: 0x20 }
  - { offsetInCU: 0x100C6, offset: 0x100C6, size: 0x8, addend: 0x0, symName: __ZNSt3__19allocatorIcEC2B7v160006Ev, symObjAddr: 0x5140, symBinAddr: 0x1000075C0, symSize: 0x20 }
  - { offsetInCU: 0x100EF, offset: 0x100EF, size: 0x8, addend: 0x0, symName: __ZNSt3__116__non_trivial_ifILb1ENS_9allocatorIcEEEC2B7v160006Ev, symObjAddr: 0x5160, symBinAddr: 0x1000075E0, symSize: 0x10 }
  - { offsetInCU: 0x10118, offset: 0x10118, size: 0x8, addend: 0x0, symName: __ZNKSt3__112basic_stringIcNS_11char_traitsIcEENS_9allocatorIcEEE13__get_pointerB7v160006Ev, symObjAddr: 0x5180, symBinAddr: 0x100007600, symSize: 0x50 }
  - { offsetInCU: 0x1013D, offset: 0x1013D, size: 0x8, addend: 0x0, symName: __ZNKSt3__112basic_stringIcNS_11char_traitsIcEENS_9allocatorIcEEE9__is_longB7v160006Ev, symObjAddr: 0x51D0, symBinAddr: 0x100007650, symSize: 0x30 }
  - { offsetInCU: 0x10162, offset: 0x10162, size: 0x8, addend: 0x0, symName: __ZNKSt3__112basic_stringIcNS_11char_traitsIcEENS_9allocatorIcEEE18__get_long_pointerB7v160006Ev, symObjAddr: 0x5200, symBinAddr: 0x100007680, symSize: 0x20 }
  - { offsetInCU: 0x10187, offset: 0x10187, size: 0x8, addend: 0x0, symName: __ZNKSt3__112basic_stringIcNS_11char_traitsIcEENS_9allocatorIcEEE19__get_short_pointerB7v160006Ev, symObjAddr: 0x5220, symBinAddr: 0x1000076A0, symSize: 0x30 }
  - { offsetInCU: 0x101AC, offset: 0x101AC, size: 0x8, addend: 0x0, symName: __ZNKSt3__117__compressed_pairINS_12basic_stringIcNS_11char_traitsIcEENS_9allocatorIcEEE5__repES5_E5firstB7v160006Ev, symObjAddr: 0x5250, symBinAddr: 0x1000076D0, symSize: 0x20 }
  - { offsetInCU: 0x101D1, offset: 0x101D1, size: 0x8, addend: 0x0, symName: __ZNKSt3__122__compressed_pair_elemINS_12basic_stringIcNS_11char_traitsIcEENS_9allocatorIcEEE5__repELi0ELb0EE5__getB7v160006Ev, symObjAddr: 0x5270, symBinAddr: 0x1000076F0, symSize: 0x10 }
  - { offsetInCU: 0x101F6, offset: 0x101F6, size: 0x8, addend: 0x0, symName: __ZNSt3__114pointer_traitsIPKcE10pointer_toB7v160006ERS1_, symObjAddr: 0x5280, symBinAddr: 0x100007700, symSize: 0x10 }
  - { offsetInCU: 0x10219, offset: 0x10219, size: 0x8, addend: 0x0, symName: __ZNSt3__119ostreambuf_iteratorIcNS_11char_traitsIcEEEC2B7v160006ERNS_13basic_ostreamIcS2_EE, symObjAddr: 0x5290, symBinAddr: 0x100007710, symSize: 0x50 }
  - { offsetInCU: 0x1024F, offset: 0x1024F, size: 0x8, addend: 0x0, symName: __ZNKSt3__19basic_iosIcNS_11char_traitsIcEEE5rdbufB7v160006Ev, symObjAddr: 0x52E0, symBinAddr: 0x100007760, symSize: 0x20 }
  - { offsetInCU: 0x10276, offset: 0x10276, size: 0x8, addend: 0x0, symName: __ZNKSt3__18ios_base5rdbufB7v160006Ev, symObjAddr: 0x5300, symBinAddr: 0x100007780, symSize: 0x20 }
  - { offsetInCU: 0x1029B, offset: 0x1029B, size: 0x8, addend: 0x0, symName: __ZNSt3__111char_traitsIcE11eq_int_typeEii, symObjAddr: 0x5320, symBinAddr: 0x1000077A0, symSize: 0x20 }
  - { offsetInCU: 0x102CC, offset: 0x102CC, size: 0x8, addend: 0x0, symName: __ZNSt3__111char_traitsIcE3eofEv, symObjAddr: 0x5340, symBinAddr: 0x1000077C0, symSize: 0x10 }
  - { offsetInCU: 0x102DF, offset: 0x102DF, size: 0x8, addend: 0x0, symName: __ZNKSt3__19basic_iosIcNS_11char_traitsIcEEE5widenB7v160006Ec, symObjAddr: 0x5350, symBinAddr: 0x1000077D0, symSize: 0x80 }
  - { offsetInCU: 0x1034C, offset: 0x1034C, size: 0x8, addend: 0x0, symName: __ZNKSt3__15ctypeIcE5widenB7v160006Ec, symObjAddr: 0x5400, symBinAddr: 0x100007880, symSize: 0x30 }
  - { offsetInCU: 0x1037F, offset: 0x1037F, size: 0x8, addend: 0x0, symName: __ZNSt3__18ios_base8setstateB7v160006Ej, symObjAddr: 0x5430, symBinAddr: 0x1000078B0, symSize: 0x30 }
...
